
========================================================================

** ELF Header Information

    File Name: .\obj\UART_AutoFlow.axf

    Machine class: ELFCLASS32 (32-bit)
    Data encoding: ELFDATA2LSB (Little endian)
    Header version: EV_CURRENT (Current version)
    Operating System ABI: none
    ABI Version: 0
    File Type: ET_EXEC (Executable) (2)
    Machine: EM_ARM (ARM)

    Image Entry point: 0x000002e9
    Flags: EF_ARM_HASENTRY (0x05000002)

    ARM ELF revision: 5 (ABI version 2)

    Conforms to Base float procedure-call standard

    Built with
    Component: ARM Compiler 5.06 update 7 (build 960) Tool: armasm [4d35fa]
    Component: ARM Compiler 5.06 update 7 (build 960) Tool: armlink [4d3601]

    Header size: 52 bytes (0x34)
    Program header entry size: 32 bytes (0x20)
    Section header entry size: 40 bytes (0x28)

    Program header entries: 1
    Section header entries: 16

    Program header offset: 305240 (0x0004a858)
    Section header offset: 305272 (0x0004a878)

    Section header string table index: 15

========================================================================

** Program header #0 (PT_LOAD) [PF_X + PF_W + PF_R + PF_ARM_ENTRY]
    Size : 33936 bytes (13188 bytes in file)
    Virtual address: 0x00000000 (Alignment 8)


========================================================================

** Section #1 'ER_RO' (SHT_PROGBITS) [SHF_ALLOC + SHF_EXECINSTR]
    Size   : 11552 bytes (alignment 4)
    Address: 0x00000000

    $d.realdata
    RESET
    __Vectors
        0x00000000:    20005770    pW.     DCD    536893296
        0x00000004:    000002e9    ....    DCD    745
        0x00000008:    00000329    )...    DCD    809
        0x0000000c:    0000020d    ....    DCD    525
        0x00000010:    0000032d    -...    DCD    813
        0x00000014:    0000032f    /...    DCD    815
        0x00000018:    00000331    1...    DCD    817
        0x0000001c:    00000000    ....    DCD    0
        0x00000020:    00000000    ....    DCD    0
        0x00000024:    00000000    ....    DCD    0
        0x00000028:    00000000    ....    DCD    0
        0x0000002c:    00000333    3...    DCD    819
        0x00000030:    00000335    5...    DCD    821
        0x00000034:    00000000    ....    DCD    0
        0x00000038:    00000337    7...    DCD    823
        0x0000003c:    00000339    9...    DCD    825
        0x00000040:    0000033b    ;...    DCD    827
        0x00000044:    0000033b    ;...    DCD    827
        0x00000048:    0000033b    ;...    DCD    827
        0x0000004c:    0000033b    ;...    DCD    827
        0x00000050:    0000033b    ;...    DCD    827
        0x00000054:    0000033b    ;...    DCD    827
        0x00000058:    0000033b    ;...    DCD    827
        0x0000005c:    0000033b    ;...    DCD    827
        0x00000060:    0000033b    ;...    DCD    827
        0x00000064:    0000033b    ;...    DCD    827
        0x00000068:    0000033b    ;...    DCD    827
        0x0000006c:    0000033b    ;...    DCD    827
        0x00000070:    0000033b    ;...    DCD    827
        0x00000074:    0000033b    ;...    DCD    827
        0x00000078:    0000033b    ;...    DCD    827
        0x0000007c:    0000033b    ;...    DCD    827
        0x00000080:    0000033b    ;...    DCD    827
        0x00000084:    0000033b    ;...    DCD    827
        0x00000088:    0000033b    ;...    DCD    827
        0x0000008c:    0000033b    ;...    DCD    827
        0x00000090:    0000033b    ;...    DCD    827
        0x00000094:    0000033b    ;...    DCD    827
        0x00000098:    0000033b    ;...    DCD    827
        0x0000009c:    0000033b    ;...    DCD    827
        0x000000a0:    0000033b    ;...    DCD    827
        0x000000a4:    0000033b    ;...    DCD    827
        0x000000a8:    0000033b    ;...    DCD    827
        0x000000ac:    0000033b    ;...    DCD    827
        0x000000b0:    0000033b    ;...    DCD    827
        0x000000b4:    0000033b    ;...    DCD    827
        0x000000b8:    0000033b    ;...    DCD    827
        0x000000bc:    0000033b    ;...    DCD    827
        0x000000c0:    00000351    Q...    DCD    849
        0x000000c4:    0000033b    ;...    DCD    827
        0x000000c8:    0000033b    ;...    DCD    827
        0x000000cc:    0000033b    ;...    DCD    827
        0x000000d0:    00001121    !...    DCD    4385
        0x000000d4:    0000111f    ....    DCD    4383
        0x000000d8:    0000033b    ;...    DCD    827
        0x000000dc:    0000033b    ;...    DCD    827
        0x000000e0:    0000033b    ;...    DCD    827
        0x000000e4:    0000033b    ;...    DCD    827
        0x000000e8:    0000033b    ;...    DCD    827
        0x000000ec:    0000033b    ;...    DCD    827
        0x000000f0:    0000033b    ;...    DCD    827
        0x000000f4:    0000033b    ;...    DCD    827
        0x000000f8:    0000033b    ;...    DCD    827
        0x000000fc:    0000033b    ;...    DCD    827
        0x00000100:    0000033b    ;...    DCD    827
        0x00000104:    0000033b    ;...    DCD    827
        0x00000108:    0000033b    ;...    DCD    827
        0x0000010c:    0000033b    ;...    DCD    827
        0x00000110:    0000033b    ;...    DCD    827
        0x00000114:    0000033b    ;...    DCD    827
        0x00000118:    0000033b    ;...    DCD    827
        0x0000011c:    0000033b    ;...    DCD    827
        0x00000120:    0000033b    ;...    DCD    827
        0x00000124:    0000033b    ;...    DCD    827
        0x00000128:    0000033b    ;...    DCD    827
        0x0000012c:    0000033b    ;...    DCD    827
        0x00000130:    0000033b    ;...    DCD    827
        0x00000134:    0000033b    ;...    DCD    827
        0x00000138:    0000033b    ;...    DCD    827
        0x0000013c:    0000033b    ;...    DCD    827
        0x00000140:    0000033b    ;...    DCD    827
        0x00000144:    0000033b    ;...    DCD    827
        0x00000148:    0000033b    ;...    DCD    827
        0x0000014c:    0000033b    ;...    DCD    827
        0x00000150:    0000033b    ;...    DCD    827
        0x00000154:    0000033b    ;...    DCD    827
        0x00000158:    0000033b    ;...    DCD    827
        0x0000015c:    0000033b    ;...    DCD    827
        0x00000160:    0000033b    ;...    DCD    827
        0x00000164:    0000033b    ;...    DCD    827
        0x00000168:    0000033b    ;...    DCD    827
        0x0000016c:    0000033b    ;...    DCD    827
        0x00000170:    0000033b    ;...    DCD    827
        0x00000174:    0000033b    ;...    DCD    827
        0x00000178:    0000033b    ;...    DCD    827
        0x0000017c:    0000033b    ;...    DCD    827
        0x00000180:    0000033b    ;...    DCD    827
        0x00000184:    0000033b    ;...    DCD    827
        0x00000188:    0000033b    ;...    DCD    827
        0x0000018c:    0000033b    ;...    DCD    827
        0x00000190:    0000033b    ;...    DCD    827
        0x00000194:    0000033b    ;...    DCD    827
        0x00000198:    0000033b    ;...    DCD    827
        0x0000019c:    0000033b    ;...    DCD    827
        0x000001a0:    0000033b    ;...    DCD    827
        0x000001a4:    0000033b    ;...    DCD    827
        0x000001a8:    0000033b    ;...    DCD    827
        0x000001ac:    0000033b    ;...    DCD    827
        0x000001b0:    0000033b    ;...    DCD    827
        0x000001b4:    0000033b    ;...    DCD    827
        0x000001b8:    0000033b    ;...    DCD    827
        0x000001bc:    0000033b    ;...    DCD    827
        0x000001c0:    0000033b    ;...    DCD    827
        0x000001c4:    0000033b    ;...    DCD    827
        0x000001c8:    0000033b    ;...    DCD    827
        0x000001cc:    0000033b    ;...    DCD    827
        0x000001d0:    0000033b    ;...    DCD    827
        0x000001d4:    0000033b    ;...    DCD    827
        0x000001d8:    0000033b    ;...    DCD    827
        0x000001dc:    0000033b    ;...    DCD    827
        0x000001e0:    0000033b    ;...    DCD    827
        0x000001e4:    0000033b    ;...    DCD    827
        0x000001e8:    0000033b    ;...    DCD    827
        0x000001ec:    0000033b    ;...    DCD    827
        0x000001f0:    0000033b    ;...    DCD    827
    $t
    .ARM.Collect$$$$00000000
    .ARM.Collect$$$$00000001
    __Vectors_End
    __main
    _main_stk
        0x000001f4:    f8dfd010    ....    LDR      sp,__lit__00000000 ; [0x208] = 0x20005770
    .ARM.Collect$$$$00000004
    _main_scatterload
        0x000001f8:    f002fba8    ....    BL       __scatterload ; 0x294c
    .ARM.Collect$$$$00000008
    .ARM.Collect$$$$0000000A
    .ARM.Collect$$$$0000000B
    __main_after_scatterload
    _main_clock
    _main_cpp_init
    _main_init
        0x000001fc:    4800        .H      LDR      r0,[pc,#0] ; [0x200] = 0x45d
        0x000001fe:    4700        .G      BX       r0
    $d
        0x00000200:    0000045d    ]...    DCD    1117
    $t
    .ARM.Collect$$$$0000000E
    __rt_lib_shutdown_fini
        0x00000204:    f3af8000    ....    NOP.W    
    $d
    .ARM.Collect$$$$00002712
    __lit__00000000
    .ARM.Collect$$$$0000000F
    .ARM.Collect$$$$00000011
    __rt_final_cpp
    __rt_final_exit
        0x00000208:    20005770    pW.     DCD    536893296
    $t
    .emb_text
    $v0
    HardFault_Handler
        0x0000020c:    2004        .       MOVS     r0,#4
        0x0000020e:    4671        qF      MOV      r1,lr
        0x00000210:    4208        .B      TST      r0,r1
        0x00000212:    d002        ..      BEQ      0x21a ; HardFault_Handler + 14
        0x00000214:    f3ef8009    ....    MRS      r0,PSP
        0x00000218:    e001        ..      B        0x21e ; HardFault_Handler + 18
        0x0000021a:    f3ef8008    ....    MRS      r0,MSP
        0x0000021e:    4671        qF      MOV      r1,lr
        0x00000220:    4a00        .J      LDR      r2,[pc,#0] ; [0x224] = 0x2059
        0x00000222:    4710        .G      BX       r2
    $d
        0x00000224:    00002059    Y ..    DCD    8281
    $t
    .text
    SystemCoreClockUpdate
        0x00000228:    b510        ..      PUSH     {r4,lr}
        0x0000022a:    f002f892    ....    BL       CLK_GetPLLClockFreq ; 0x2352
        0x0000022e:    4a29        )J      LDR      r2,[pc,#164] ; [0x2d4] = 0x20000000
        0x00000230:    f04f4380    O..C    MOV      r3,#0x40000000
        0x00000234:    6090        .`      STR      r0,[r2,#8]
        0x00000236:    f8d31210    ....    LDR      r1,[r3,#0x210]
        0x0000023a:    f0010107    ....    AND      r1,r1,#7
        0x0000023e:    2902        .)      CMP      r1,#2
        0x00000240:    d003        ..      BEQ      0x24a ; SystemCoreClockUpdate + 34
        0x00000242:    f102000c    ....    ADD      r0,r2,#0xc
        0x00000246:    f8500021    P.!.    LDR      r0,[r0,r1,LSL #2]
        0x0000024a:    f8d31220    .. .    LDR      r1,[r3,#0x220]
        0x0000024e:    f001010f    ....    AND      r1,r1,#0xf
        0x00000252:    1c49        I.      ADDS     r1,r1,#1
        0x00000254:    fbb0f0f1    ....    UDIV     r0,r0,r1
        0x00000258:    491f        .I      LDR      r1,[pc,#124] ; [0x2d8] = 0x7a120
        0x0000025a:    6010        .`      STR      r0,[r2,#0]
        0x0000025c:    4408        .D      ADD      r0,r0,r1
        0x0000025e:    0049        I.      LSLS     r1,r1,#1
        0x00000260:    fbb0f0f1    ....    UDIV     r0,r0,r1
        0x00000264:    6050        P`      STR      r0,[r2,#4]
        0x00000266:    bd10        ..      POP      {r4,pc}
    SystemInit
        0x00000268:    481c        .H      LDR      r0,[pc,#112] ; [0x2dc] = 0xe000ed88
        0x0000026a:    6801        .h      LDR      r1,[r0,#0]
        0x0000026c:    f4410170    A.p.    ORR      r1,r1,#0xf00000
        0x00000270:    6001        .`      STR      r1,[r0,#0]
        0x00000272:    481b        .H      LDR      r0,[pc,#108] ; [0x2e0] = 0x4000c000
        0x00000274:    6cc1        .l      LDR      r1,[r0,#0x4c]
        0x00000276:    f021010f    !...    BIC      r1,r1,#0xf
        0x0000027a:    f0410108    A...    ORR      r1,r1,#8
        0x0000027e:    64c1        .d      STR      r1,[r0,#0x4c]
        0x00000280:    f04f4080    O..@    MOV      r0,#0x40000000
        0x00000284:    f8d01298    ....    LDR      r1,[r0,#0x298]
        0x00000288:    f4412180    A..!    ORR      r1,r1,#0x40000
        0x0000028c:    f8c01298    ....    STR      r1,[r0,#0x298]
        0x00000290:    f8d01208    ....    LDR      r1,[r0,#0x208]
        0x00000294:    f0410102    A...    ORR      r1,r1,#2
        0x00000298:    f8c01208    ....    STR      r1,[r0,#0x208]
        0x0000029c:    4911        .I      LDR      r1,[pc,#68] ; [0x2e4] = 0x40041000
        0x0000029e:    f8d12104    ...!    LDR      r2,[r1,#0x104]
        0x000002a2:    f00232f7    ...2    AND      r2,r2,#0xf7f7f7f7
        0x000002a6:    f8c12104    ...!    STR      r2,[r1,#0x104]
        0x000002aa:    f8d12108    ...!    LDR      r2,[r1,#0x108]
        0x000002ae:    f00232f7    ...2    AND      r2,r2,#0xf7f7f7f7
        0x000002b2:    f8c12108    ...!    STR      r2,[r1,#0x108]
        0x000002b6:    f8d01208    ....    LDR      r1,[r0,#0x208]
        0x000002ba:    f0210102    !...    BIC      r1,r1,#2
        0x000002be:    f8c01208    ....    STR      r1,[r0,#0x208]
        0x000002c2:    f04f2040    O.@     MOV      r0,#0x40004000
        0x000002c6:    f8d01140    ..@.    LDR      r1,[r0,#0x140]
        0x000002ca:    f02101f0    !...    BIC      r1,r1,#0xf0
        0x000002ce:    f8c01140    ..@.    STR      r1,[r0,#0x140]
        0x000002d2:    4770        pG      BX       lr
    $d
        0x000002d4:    20000000    ...     DCD    536870912
        0x000002d8:    0007a120     ...    DCD    500000
        0x000002dc:    e000ed88    ....    DCD    3758157192
        0x000002e0:    4000c000    ...@    DCD    1073790976
        0x000002e4:    40041000    ...@    DCD    1074008064
    $t
    .text
    $v0
    Reset_Handler
        0x000002e8:    4814        .H      LDR      r0,[pc,#80] ; [0x33c] = 0x40000100
        0x000002ea:    f04f0159    O.Y.    MOV      r1,#0x59
        0x000002ee:    6001        .`      STR      r1,[r0,#0]
        0x000002f0:    f04f0116    O...    MOV      r1,#0x16
        0x000002f4:    6001        .`      STR      r1,[r0,#0]
        0x000002f6:    f04f0188    O...    MOV      r1,#0x88
        0x000002fa:    6001        .`      STR      r1,[r0,#0]
        0x000002fc:    4810        .H      LDR      r0,[pc,#64] ; [0x340] = 0x40000200
        0x000002fe:    6841        Ah      LDR      r1,[r0,#4]
        0x00000300:    f4414180    A..A    ORR      r1,r1,#0x4000
        0x00000304:    6041        A`      STR      r1,[r0,#4]
        0x00000306:    480f        .H      LDR      r0,[pc,#60] ; [0x344] = 0x40007000
        0x00000308:    6841        Ah      LDR      r1,[r0,#4]
        0x0000030a:    f0410102    A...    ORR      r1,r1,#2
        0x0000030e:    6041        A`      STR      r1,[r0,#4]
        0x00000310:    6841        Ah      LDR      r1,[r0,#4]
        0x00000312:    f0410104    A...    ORR      r1,r1,#4
        0x00000316:    6041        A`      STR      r1,[r0,#4]
        0x00000318:    480b        .H      LDR      r0,[pc,#44] ; [0x348] = 0x269
        0x0000031a:    4780        .G      BLX      r0
        0x0000031c:    4807        .H      LDR      r0,[pc,#28] ; [0x33c] = 0x40000100
        0x0000031e:    f04f0100    O...    MOV      r1,#0
        0x00000322:    6001        .`      STR      r1,[r0,#0]
        0x00000324:    4809        .H      LDR      r0,[pc,#36] ; [0x34c] = 0x1f5
        0x00000326:    4700        .G      BX       r0
    NMI_Handler
        0x00000328:    e7fe        ..      B        NMI_Handler ; 0x328
        0x0000032a:    e7fe        ..      B        0x32a ; NMI_Handler + 2
    MemManage_Handler
        0x0000032c:    e7fe        ..      B        MemManage_Handler ; 0x32c
    BusFault_Handler
        0x0000032e:    e7fe        ..      B        BusFault_Handler ; 0x32e
    UsageFault_Handler
        0x00000330:    e7fe        ..      B        UsageFault_Handler ; 0x330
    SVC_Handler
        0x00000332:    e7fe        ..      B        SVC_Handler ; 0x332
    DebugMon_Handler
        0x00000334:    e7fe        ..      B        DebugMon_Handler ; 0x334
    PendSV_Handler
        0x00000336:    e7fe        ..      B        PendSV_Handler ; 0x336
    SysTick_Handler
        0x00000338:    e7fe        ..      B        SysTick_Handler ; 0x338
    Default_Handler
    ACMP01_IRQHandler
    BOD_IRQHandler
    BPWM0_IRQHandler
    BPWM1_IRQHandler
    BRAKE0_IRQHandler
    BRAKE1_IRQHandler
    CAN0_IRQHandler
    CAN1_IRQHandler
    CAN2_IRQHandler
    CCAP_IRQHandler
    CKFAIL_IRQHandler
    CRYPTO_IRQHandler
    DAC_IRQHandler
    EADC00_IRQHandler
    EADC01_IRQHandler
    EADC02_IRQHandler
    EADC03_IRQHandler
    EADC10_IRQHandler
    EADC11_IRQHandler
    EADC12_IRQHandler
    EADC13_IRQHandler
    ECAP0_IRQHandler
    ECAP1_IRQHandler
    EHCI_IRQHandler
    EINT0_IRQHandler
    EINT1_IRQHandler
    EINT2_IRQHandler
    EINT3_IRQHandler
    EINT4_IRQHandler
    EINT5_IRQHandler
    EINT6_IRQHandler
    EINT7_IRQHandler
    EMAC_RX_IRQHandler
    EMAC_TX_IRQHandler
    EPWM0P0_IRQHandler
    EPWM0P1_IRQHandler
    EPWM0P2_IRQHandler
    EPWM1P0_IRQHandler
    EPWM1P1_IRQHandler
    EPWM1P2_IRQHandler
    GPA_IRQHandler
    GPB_IRQHandler
    GPC_IRQHandler
    GPD_IRQHandler
    GPE_IRQHandler
    GPF_IRQHandler
    GPG_IRQHandler
    GPH_IRQHandler
    I2C0_IRQHandler
    I2C1_IRQHandler
    I2C2_IRQHandler
    I2S0_IRQHandler
    IRC_IRQHandler
    OHCI_IRQHandler
    OPA0_IRQHandler
    PDMA_IRQHandler
    PWRWU_IRQHandler
    QEI0_IRQHandler
    QEI1_IRQHandler
    QSPI0_IRQHandler
    QSPI1_IRQHandler
    RAMPE_IRQHandler
    RTC_IRQHandler
    SC0_IRQHandler
    SC1_IRQHandler
    SC2_IRQHandler
    SDH0_IRQHandler
    SDH1_IRQHandler
    SPI0_IRQHandler
    SPI1_IRQHandler
    SPI2_IRQHandler
    SPI3_IRQHandler
    SPIM_IRQHandler
    TAMPER_IRQHandler
    TMR1_IRQHandler
    TMR2_IRQHandler
    TMR3_IRQHandler
    TRNG_IRQHandler
    UART2_IRQHandler
    UART3_IRQHandler
    UART4_IRQHandler
    UART5_IRQHandler
    UART6_IRQHandler
    UART7_IRQHandler
    USBD20_IRQHandler
    USBD_IRQHandler
    USBOTG20_IRQHandler
    USBOTG_IRQHandler
    USCI0_IRQHandler
    USCI1_IRQHandler
    WDT_IRQHandler
    WWDT_IRQHandler
        0x0000033a:    e7fe        ..      B        Default_Handler ; 0x33a
    $d
        0x0000033c:    40000100    ...@    DCD    1073742080
        0x00000340:    40000200    ...@    DCD    1073742336
        0x00000344:    40007000    .p.@    DCD    1073770496
        0x00000348:    00000269    i...    DCD    617
        0x0000034c:    000001f5    ....    DCD    501
    $t
    .text
    TMR0_IRQHandler
        0x00000350:    e92d41f0    -..A    PUSH     {r4-r8,lr}
        0x00000354:    f000fa8d    ....    BL       read_broken_transducer ; 0x872
        0x00000358:    2601        .&      MOVS     r6,#1
        0x0000035a:    4d56        VM      LDR      r5,[pc,#344] ; [0x4b4] = 0x2000003d
        0x0000035c:    4c56        VL      LDR      r4,[pc,#344] ; [0x4b8] = 0x20000030
        0x0000035e:    2801        .(      CMP      r0,#1
        0x00000360:    d101        ..      BNE      0x366 ; TMR0_IRQHandler + 22
        0x00000362:    6860        `h      LDR      r0,[r4,#4]
        0x00000364:    b120         .      CBZ      r0,0x370 ; TMR0_IRQHandler + 32
        0x00000366:    f000fa60    ..`.    BL       read_overload_display ; 0x82a
        0x0000036a:    2801        .(      CMP      r0,#1
        0x0000036c:    d011        ..      BEQ      0x392 ; TMR0_IRQHandler + 66
        0x0000036e:    e016        ..      B        0x39e ; TMR0_IRQHandler + 78
        0x00000370:    f000fa8e    ....    BL       read_entered_main_page ; 0x890
        0x00000374:    2801        .(      CMP      r0,#1
        0x00000376:    68a0        .h      LDR      r0,[r4,#8]
        0x00000378:    d101        ..      BNE      0x37e ; TMR0_IRQHandler + 46
        0x0000037a:    1c40        @.      ADDS     r0,r0,#1
        0x0000037c:    60a0        .`      STR      r0,[r4,#8]
        0x0000037e:    280a        .(      CMP      r0,#0xa
        0x00000380:    dd04        ..      BLE      0x38c ; TMR0_IRQHandler + 60
        0x00000382:    f000fa85    ....    BL       read_entered_main_page ; 0x890
        0x00000386:    2801        .(      CMP      r0,#1
        0x00000388:    d100        ..      BNE      0x38c ; TMR0_IRQHandler + 60
        0x0000038a:    6066        f`      STR      r6,[r4,#4]
        0x0000038c:    f000ff24    ..$.    BL       print_page_broken_transducer ; 0x11d8
        0x00000390:    e02c        ,.      B        0x3ec ; TMR0_IRQHandler + 156
        0x00000392:    7828        (x      LDRB     r0,[r5,#0]
        0x00000394:    2807        .(      CMP      r0,#7
        0x00000396:    d002        ..      BEQ      0x39e ; TMR0_IRQHandler + 78
        0x00000398:    f000ff12    ....    BL       print_page_overload ; 0x11c0
        0x0000039c:    e026        &.      B        0x3ec ; TMR0_IRQHandler + 156
        0x0000039e:    6820         h      LDR      r0,[r4,#0]
        0x000003a0:    b968        h.      CBNZ     r0,0x3be ; TMR0_IRQHandler + 110
        0x000003a2:    f000fa3f    ..?.    BL       read_timeout_occured ; 0x824
        0x000003a6:    b150        P.      CBZ      r0,0x3be ; TMR0_IRQHandler + 110
        0x000003a8:    6026        &`      STR      r6,[r4,#0]
        0x000003aa:    7828        (x      LDRB     r0,[r5,#0]
        0x000003ac:    280a        .(      CMP      r0,#0xa
        0x000003ae:    d01d        ..      BEQ      0x3ec ; TMR0_IRQHandler + 156
        0x000003b0:    2807        .(      CMP      r0,#7
        0x000003b2:    d01b        ..      BEQ      0x3ec ; TMR0_IRQHandler + 156
        0x000003b4:    2809        .(      CMP      r0,#9
        0x000003b6:    d019        ..      BEQ      0x3ec ; TMR0_IRQHandler + 156
        0x000003b8:    f000ff08    ....    BL       print_page_timeout ; 0x11cc
        0x000003bc:    e016        ..      B        0x3ec ; TMR0_IRQHandler + 156
        0x000003be:    7828        (x      LDRB     r0,[r5,#0]
        0x000003c0:    2802        .(      CMP      r0,#2
        0x000003c2:    d018        ..      BEQ      0x3f6 ; TMR0_IRQHandler + 166
        0x000003c4:    2803        .(      CMP      r0,#3
        0x000003c6:    d020         .      BEQ      0x40a ; TMR0_IRQHandler + 186
        0x000003c8:    2804        .(      CMP      r0,#4
        0x000003ca:    d021        !.      BEQ      0x410 ; TMR0_IRQHandler + 192
        0x000003cc:    2805        .(      CMP      r0,#5
        0x000003ce:    d022        ".      BEQ      0x416 ; TMR0_IRQHandler + 198
        0x000003d0:    2806        .(      CMP      r0,#6
        0x000003d2:    d020         .      BEQ      0x416 ; TMR0_IRQHandler + 198
        0x000003d4:    2807        .(      CMP      r0,#7
        0x000003d6:    d021        !.      BEQ      0x41c ; TMR0_IRQHandler + 204
        0x000003d8:    2808        .(      CMP      r0,#8
        0x000003da:    d022        ".      BEQ      0x422 ; TMR0_IRQHandler + 210
        0x000003dc:    2809        .(      CMP      r0,#9
        0x000003de:    d023        #.      BEQ      0x428 ; TMR0_IRQHandler + 216
        0x000003e0:    280a        .(      CMP      r0,#0xa
        0x000003e2:    d024        $.      BEQ      0x42e ; TMR0_IRQHandler + 222
        0x000003e4:    2105        .!      MOVS     r1,#5
        0x000003e6:    4835        5H      LDR      r0,[pc,#212] ; [0x4bc] = 0x40050100
        0x000003e8:    f002f9f2    ....    BL       TIMER_Delay ; 0x27d0
        0x000003ec:    f000fa1a    ....    BL       read_timeout_occured ; 0x824
        0x000003f0:    2700        .'      MOVS     r7,#0
        0x000003f2:    b1f8        ..      CBZ      r0,0x434 ; TMR0_IRQHandler + 228
        0x000003f4:    e01f        ..      B        0x436 ; TMR0_IRQHandler + 230
        0x000003f6:    4832        2H      LDR      r0,[pc,#200] ; [0x4c0] = 0x2000003e
        0x000003f8:    7800        .x      LDRB     r0,[r0,#0]
        0x000003fa:    2801        .(      CMP      r0,#1
        0x000003fc:    d002        ..      BEQ      0x404 ; TMR0_IRQHandler + 180
        0x000003fe:    f000feda    ....    BL       print_page_lock_freq ; 0x11b6
        0x00000402:    e7f3        ..      B        0x3ec ; TMR0_IRQHandler + 156
        0x00000404:    f000feee    ....    BL       print_page_setting_1 ; 0x11e4
        0x00000408:    e7f0        ..      B        0x3ec ; TMR0_IRQHandler + 156
        0x0000040a:    f000ffd3    ....    BL       print_page_setting_2 ; 0x13b4
        0x0000040e:    e7ed        ..      B        0x3ec ; TMR0_IRQHandler + 156
        0x00000410:    f000ffea    ....    BL       print_page_SectionVib ; 0x13e8
        0x00000414:    e7ea        ..      B        0x3ec ; TMR0_IRQHandler + 156
        0x00000416:    f001fba6    ....    BL       print_page_early_after_trigger ; 0x1b66
        0x0000041a:    e7e7        ..      B        0x3ec ; TMR0_IRQHandler + 156
        0x0000041c:    f001fc51    ..Q.    BL       print_page_head_diagnosis ; 0x1cc2
        0x00000420:    e7e4        ..      B        0x3ec ; TMR0_IRQHandler + 156
        0x00000422:    f001f8d6    ....    BL       print_page_weld_record ; 0x15d2
        0x00000426:    e7e1        ..      B        0x3ec ; TMR0_IRQHandler + 156
        0x00000428:    f001f853    ..S.    BL       print_page_head_down ; 0x14d2
        0x0000042c:    e7de        ..      B        0x3ec ; TMR0_IRQHandler + 156
        0x0000042e:    f001fb5a    ..Z.    BL       print_page_head_test ; 0x1ae6
        0x00000432:    e7db        ..      B        0x3ec ; TMR0_IRQHandler + 156
        0x00000434:    6027        '`      STR      r7,[r4,#0]
        0x00000436:    f000fa1c    ....    BL       read_broken_transducer ; 0x872
        0x0000043a:    b908        ..      CBNZ     r0,0x440 ; TMR0_IRQHandler + 240
        0x0000043c:    6067        g`      STR      r7,[r4,#4]
        0x0000043e:    60a7        .`      STR      r7,[r4,#8]
        0x00000440:    7828        (x      LDRB     r0,[r5,#0]
        0x00000442:    280a        .(      CMP      r0,#0xa
        0x00000444:    d006        ..      BEQ      0x454 ; TMR0_IRQHandler + 260
        0x00000446:    f000fa1a    ....    BL       read_button_test_display ; 0x87e
        0x0000044a:    2801        .(      CMP      r0,#1
        0x0000044c:    d102        ..      BNE      0x454 ; TMR0_IRQHandler + 260
        0x0000044e:    2000        .       MOVS     r0,#0
        0x00000450:    f000fa12    ....    BL       write_button_test ; 0x878
        0x00000454:    481b        .H      LDR      r0,[pc,#108] ; [0x4c4] = 0x40050000
        0x00000456:    6086        .`      STR      r6,[r0,#8]
        0x00000458:    e8bd81f0    ....    POP      {r4-r8,pc}
    main
        0x0000045c:    f000fded    ....    BL       SYS_Init ; 0x103a
        0x00000460:    f000fe53    ..S.    BL       UART0_Init ; 0x110a
        0x00000464:    f000fe56    ..V.    BL       UART1_Init ; 0x1114
        0x00000468:    f04f4080    O..@    MOV      r0,#0x40000000
        0x0000046c:    6c01        .l      LDR      r1,[r0,#0x40]
        0x0000046e:    f0216170    !.pa    BIC      r1,r1,#0xf000000
        0x00000472:    6401        .d      STR      r1,[r0,#0x40]
        0x00000474:    2201        ."      MOVS     r2,#1
        0x00000476:    2140        @!      MOVS     r1,#0x40
        0x00000478:    4813        .H      LDR      r0,[pc,#76] ; [0x4c8] = 0x40004080
        0x0000047a:    f002fa0d    ....    BL       GPIO_SetMode ; 0x2898
        0x0000047e:    4913        .I      LDR      r1,[pc,#76] ; [0x4cc] = 0x40004898
        0x00000480:    2000        .       MOVS     r0,#0
        0x00000482:    6008        .`      STR      r0,[r1,#0]
        0x00000484:    4c0f        .L      LDR      r4,[pc,#60] ; [0x4c4] = 0x40050000
        0x00000486:    220a        ."      MOVS     r2,#0xa
        0x00000488:    f04f6100    O..a    MOV      r1,#0x8000000
        0x0000048c:    4620         F      MOV      r0,r4
        0x0000048e:    f002f984    ....    BL       TIMER_Open ; 0x279a
        0x00000492:    6820         h      LDR      r0,[r4,#0]
        0x00000494:    f0405000    @..P    ORR      r0,r0,#0x20000000
        0x00000498:    6020         `      STR      r0,[r4,#0]
        0x0000049a:    490d        .I      LDR      r1,[pc,#52] ; [0x4d0] = 0xe000e004
        0x0000049c:    2001        .       MOVS     r0,#1
        0x0000049e:    f8c10100    ....    STR      r0,[r1,#0x100]
        0x000004a2:    6820         h      LDR      r0,[r4,#0]
        0x000004a4:    f0404080    @..@    ORR      r0,r0,#0x40000000
        0x000004a8:    6020         `      STR      r0,[r4,#0]
        0x000004aa:    f000fd8e    ....    BL       UART1_interrrupt ; 0xfca
        0x000004ae:    f000fda8    ....    BL       UART0_interrrupt ; 0x1002
        0x000004b2:    e7fe        ..      B        0x4b2 ; main + 86
    $d
        0x000004b4:    2000003d    =..     DCD    536870973
        0x000004b8:    20000030    0..     DCD    536870960
        0x000004bc:    40050100    ...@    DCD    1074069760
        0x000004c0:    2000003e    >..     DCD    536870974
        0x000004c4:    40050000    ...@    DCD    1074069504
        0x000004c8:    40004080    .@.@    DCD    1073758336
        0x000004cc:    40004898    .H.@    DCD    1073760408
        0x000004d0:    e000e004    ....    DCD    3758153732
    $t
    .text
    write_amplitude_head_test_set
        0x000004d4:    49fe        .I      LDR      r1,[pc,#1016] ; [0x8d0] = 0x2000003c
        0x000004d6:    6248        Hb      STR      r0,[r1,#0x24]
        0x000004d8:    4770        pG      BX       lr
    write_amplitude_set
        0x000004da:    49fd        .I      LDR      r1,[pc,#1012] ; [0x8d0] = 0x2000003c
        0x000004dc:    6148        Ha      STR      r0,[r1,#0x14]
        0x000004de:    4770        pG      BX       lr
    write_timeout_set
        0x000004e0:    49fb        .I      LDR      r1,[pc,#1004] ; [0x8d0] = 0x2000003c
        0x000004e2:    61c8        .a      STR      r0,[r1,#0x1c]
        0x000004e4:    4770        pG      BX       lr
    write_force_set
        0x000004e6:    49fa        .I      LDR      r1,[pc,#1000] ; [0x8d0] = 0x2000003c
        0x000004e8:    6188        .a      STR      r0,[r1,#0x18]
        0x000004ea:    4770        pG      BX       lr
    write_hold_time_set
        0x000004ec:    49f8        .I      LDR      r1,[pc,#992] ; [0x8d0] = 0x2000003c
        0x000004ee:    6208        .b      STR      r0,[r1,#0x20]
        0x000004f0:    4770        pG      BX       lr
    read_amplitude_set_display
        0x000004f2:    48f7        .H      LDR      r0,[pc,#988] ; [0x8d0] = 0x2000003c
        0x000004f4:    6f00        .o      LDR      r0,[r0,#0x70]
        0x000004f6:    4770        pG      BX       lr
    read_timeout_set_display
        0x000004f8:    48f5        .H      LDR      r0,[pc,#980] ; [0x8d0] = 0x2000003c
        0x000004fa:    6f80        .o      LDR      r0,[r0,#0x78]
        0x000004fc:    4770        pG      BX       lr
    read_force_set_display
        0x000004fe:    48f4        .H      LDR      r0,[pc,#976] ; [0x8d0] = 0x2000003c
        0x00000500:    6fc0        .o      LDR      r0,[r0,#0x7c]
        0x00000502:    4770        pG      BX       lr
    read_hold_time_display
        0x00000504:    48f2        .H      LDR      r0,[pc,#968] ; [0x8d0] = 0x2000003c
        0x00000506:    3080        .0      ADDS     r0,r0,#0x80
        0x00000508:    6840        @h      LDR      r0,[r0,#4]
        0x0000050a:    4770        pG      BX       lr
    write_mode_set
        0x0000050c:    49f0        .I      LDR      r1,[pc,#960] ; [0x8d0] = 0x2000003c
        0x0000050e:    6348        Hc      STR      r0,[r1,#0x34]
        0x00000510:    4770        pG      BX       lr
    write_distance_absolute_set
        0x00000512:    49ef        .I      LDR      r1,[pc,#956] ; [0x8d0] = 0x2000003c
        0x00000514:    3180        .1      ADDS     r1,r1,#0x80
        0x00000516:    61c8        .a      STR      r0,[r1,#0x1c]
        0x00000518:    4770        pG      BX       lr
    write_distance_relative_set
        0x0000051a:    49ed        .I      LDR      r1,[pc,#948] ; [0x8d0] = 0x2000003c
        0x0000051c:    6288        .b      STR      r0,[r1,#0x28]
        0x0000051e:    4770        pG      BX       lr
    write_energy_set
        0x00000520:    49eb        .I      LDR      r1,[pc,#940] ; [0x8d0] = 0x2000003c
        0x00000522:    6308        .c      STR      r0,[r1,#0x30]
        0x00000524:    4770        pG      BX       lr
    write_time_set_stage_one_set
        0x00000526:    49ea        .I      LDR      r1,[pc,#936] ; [0x8d0] = 0x2000003c
        0x00000528:    62c8        .b      STR      r0,[r1,#0x2c]
        0x0000052a:    4770        pG      BX       lr
    write_power_stage_one_set
        0x0000052c:    49e8        .I      LDR      r1,[pc,#928] ; [0x8d0] = 0x2000003c
        0x0000052e:    6388        .c      STR      r0,[r1,#0x38]
        0x00000530:    4770        pG      BX       lr
    write_gnd_set
        0x00000532:    49e7        .I      LDR      r1,[pc,#924] ; [0x8d0] = 0x2000003c
        0x00000534:    3180        .1      ADDS     r1,r1,#0x80
        0x00000536:    6208        .b      STR      r0,[r1,#0x20]
        0x00000538:    4770        pG      BX       lr
    read_mode_set
        0x0000053a:    48e5        .H      LDR      r0,[pc,#916] ; [0x8d0] = 0x2000003c
        0x0000053c:    6b40        @k      LDR      r0,[r0,#0x34]
        0x0000053e:    4770        pG      BX       lr
    read_distance_absolute_set_display
        0x00000540:    48e3        .H      LDR      r0,[pc,#908] ; [0x8d0] = 0x2000003c
        0x00000542:    3080        .0      ADDS     r0,r0,#0x80
        0x00000544:    6880        .h      LDR      r0,[r0,#8]
        0x00000546:    4770        pG      BX       lr
    read_distance_relative_set_display
        0x00000548:    48e1        .H      LDR      r0,[pc,#900] ; [0x8d0] = 0x2000003c
        0x0000054a:    3080        .0      ADDS     r0,r0,#0x80
        0x0000054c:    68c0        .h      LDR      r0,[r0,#0xc]
        0x0000054e:    4770        pG      BX       lr
    read_energy_set_display
        0x00000550:    48df        .H      LDR      r0,[pc,#892] ; [0x8d0] = 0x2000003c
        0x00000552:    6b00        .k      LDR      r0,[r0,#0x30]
        0x00000554:    4770        pG      BX       lr
    read_time_set_stage_one_display
        0x00000556:    48de        .H      LDR      r0,[pc,#888] ; [0x8d0] = 0x2000003c
        0x00000558:    3080        .0      ADDS     r0,r0,#0x80
        0x0000055a:    6940        @i      LDR      r0,[r0,#0x14]
        0x0000055c:    4770        pG      BX       lr
    read_power_stage_one_display
        0x0000055e:    48dc        .H      LDR      r0,[pc,#880] ; [0x8d0] = 0x2000003c
        0x00000560:    3080        .0      ADDS     r0,r0,#0x80
        0x00000562:    6980        .i      LDR      r0,[r0,#0x18]
        0x00000564:    4770        pG      BX       lr
    read_gnd_display
        0x00000566:    48da        .H      LDR      r0,[pc,#872] ; [0x8d0] = 0x2000003c
        0x00000568:    3080        .0      ADDS     r0,r0,#0x80
        0x0000056a:    6a40        @j      LDR      r0,[r0,#0x24]
        0x0000056c:    4770        pG      BX       lr
    write_amplitudeA_set_stage2
        0x0000056e:    49d8        .I      LDR      r1,[pc,#864] ; [0x8d0] = 0x2000003c
        0x00000570:    6148        Ha      STR      r0,[r1,#0x14]
        0x00000572:    4770        pG      BX       lr
    write_amplitudeB_set_stage2
        0x00000574:    49d6        .I      LDR      r1,[pc,#856] ; [0x8d0] = 0x2000003c
        0x00000576:    63c8        .c      STR      r0,[r1,#0x3c]
        0x00000578:    4770        pG      BX       lr
    write_distance_set_stage2
        0x0000057a:    49d5        .I      LDR      r1,[pc,#852] ; [0x8d0] = 0x2000003c
        0x0000057c:    3180        .1      ADDS     r1,r1,#0x80
        0x0000057e:    62c8        .b      STR      r0,[r1,#0x2c]
        0x00000580:    4770        pG      BX       lr
    write_power_set_stage2
        0x00000582:    49d3        .I      LDR      r1,[pc,#844] ; [0x8d0] = 0x2000003c
        0x00000584:    3180        .1      ADDS     r1,r1,#0x80
        0x00000586:    6348        Hc      STR      r0,[r1,#0x34]
        0x00000588:    4770        pG      BX       lr
    write_energy_set_stage2
        0x0000058a:    49d1        .I      LDR      r1,[pc,#836] ; [0x8d0] = 0x2000003c
        0x0000058c:    3180        .1      ADDS     r1,r1,#0x80
        0x0000058e:    6308        .c      STR      r0,[r1,#0x30]
        0x00000590:    4770        pG      BX       lr
    write_time_set_stage2
        0x00000592:    49cf        .I      LDR      r1,[pc,#828] ; [0x8d0] = 0x2000003c
        0x00000594:    3180        .1      ADDS     r1,r1,#0x80
        0x00000596:    6288        .b      STR      r0,[r1,#0x28]
        0x00000598:    4770        pG      BX       lr
    write_stage2_mode_address_set
        0x0000059a:    49cd        .I      LDR      r1,[pc,#820] ; [0x8d0] = 0x2000003c
        0x0000059c:    3180        .1      ADDS     r1,r1,#0x80
        0x0000059e:    63c8        .c      STR      r0,[r1,#0x3c]
        0x000005a0:    4770        pG      BX       lr
    read_stage2_mode_address_display
        0x000005a2:    48cb        .H      LDR      r0,[pc,#812] ; [0x8d0] = 0x2000003c
        0x000005a4:    3080        .0      ADDS     r0,r0,#0x80
        0x000005a6:    6c40        @l      LDR      r0,[r0,#0x44]
        0x000005a8:    4770        pG      BX       lr
    read_amplitudeA_set_stage2_display
        0x000005aa:    48c9        .H      LDR      r0,[pc,#804] ; [0x8d0] = 0x2000003c
        0x000005ac:    6f00        .o      LDR      r0,[r0,#0x70]
        0x000005ae:    4770        pG      BX       lr
    read_amplitudeB_set_stage2_display
        0x000005b0:    48c7        .H      LDR      r0,[pc,#796] ; [0x8d0] = 0x2000003c
        0x000005b2:    3080        .0      ADDS     r0,r0,#0x80
        0x000005b4:    6b80        .k      LDR      r0,[r0,#0x38]
        0x000005b6:    4770        pG      BX       lr
    read_time_set_stage2_display
        0x000005b8:    48c5        .H      LDR      r0,[pc,#788] ; [0x8d0] = 0x2000003c
        0x000005ba:    3080        .0      ADDS     r0,r0,#0x80
        0x000005bc:    6c41        Al      LDR      r1,[r0,#0x44]
        0x000005be:    2903        .)      CMP      r1,#3
        0x000005c0:    d001        ..      BEQ      0x5c6 ; read_time_set_stage2_display + 14
        0x000005c2:    2000        .       MOVS     r0,#0
        0x000005c4:    4770        pG      BX       lr
        0x000005c6:    6c00        .l      LDR      r0,[r0,#0x40]
        0x000005c8:    4770        pG      BX       lr
    read_distance_set_stage2_display
        0x000005ca:    48c1        .H      LDR      r0,[pc,#772] ; [0x8d0] = 0x2000003c
        0x000005cc:    3080        .0      ADDS     r0,r0,#0x80
        0x000005ce:    6c41        Al      LDR      r1,[r0,#0x44]
        0x000005d0:    2904        .)      CMP      r1,#4
        0x000005d2:    d001        ..      BEQ      0x5d8 ; read_distance_set_stage2_display + 14
        0x000005d4:    2000        .       MOVS     r0,#0
        0x000005d6:    4770        pG      BX       lr
        0x000005d8:    6c00        .l      LDR      r0,[r0,#0x40]
        0x000005da:    4770        pG      BX       lr
    read_power_set_stage2_display
        0x000005dc:    48bc        .H      LDR      r0,[pc,#752] ; [0x8d0] = 0x2000003c
        0x000005de:    3080        .0      ADDS     r0,r0,#0x80
        0x000005e0:    6c41        Al      LDR      r1,[r0,#0x44]
        0x000005e2:    2905        .)      CMP      r1,#5
        0x000005e4:    d001        ..      BEQ      0x5ea ; read_power_set_stage2_display + 14
        0x000005e6:    2000        .       MOVS     r0,#0
        0x000005e8:    4770        pG      BX       lr
        0x000005ea:    6c00        .l      LDR      r0,[r0,#0x40]
        0x000005ec:    4770        pG      BX       lr
    read_energy_set_stage2_display
        0x000005ee:    48b8        .H      LDR      r0,[pc,#736] ; [0x8d0] = 0x2000003c
        0x000005f0:    3080        .0      ADDS     r0,r0,#0x80
        0x000005f2:    6c41        Al      LDR      r1,[r0,#0x44]
        0x000005f4:    2906        .)      CMP      r1,#6
        0x000005f6:    d001        ..      BEQ      0x5fc ; read_energy_set_stage2_display + 14
        0x000005f8:    2000        .       MOVS     r0,#0
        0x000005fa:    4770        pG      BX       lr
        0x000005fc:    6b00        .k      LDR      r0,[r0,#0x30]
        0x000005fe:    4770        pG      BX       lr
    read_stage2_mode_address_set
        0x00000600:    48b3        .H      LDR      r0,[pc,#716] ; [0x8d0] = 0x2000003c
        0x00000602:    3080        .0      ADDS     r0,r0,#0x80
        0x00000604:    6bc0        .k      LDR      r0,[r0,#0x3c]
        0x00000606:    4770        pG      BX       lr
    write_power_early_stage_set
        0x00000608:    49b1        .I      LDR      r1,[pc,#708] ; [0x8d0] = 0x2000003c
        0x0000060a:    6408        .d      STR      r0,[r1,#0x40]
        0x0000060c:    4770        pG      BX       lr
    write_mode_early_stage_set
        0x0000060e:    49b0        .I      LDR      r1,[pc,#704] ; [0x8d0] = 0x2000003c
        0x00000610:    3180        .1      ADDS     r1,r1,#0x80
        0x00000612:    6548        He      STR      r0,[r1,#0x54]
        0x00000614:    4770        pG      BX       lr
    write_time_early_trigger_set
        0x00000616:    49ae        .I      LDR      r1,[pc,#696] ; [0x8d0] = 0x2000003c
        0x00000618:    6448        Hd      STR      r0,[r1,#0x44]
        0x0000061a:    4770        pG      BX       lr
    write_distance_early_trigger_set
        0x0000061c:    49ac        .I      LDR      r1,[pc,#688] ; [0x8d0] = 0x2000003c
        0x0000061e:    6488        .d      STR      r0,[r1,#0x48]
        0x00000620:    4770        pG      BX       lr
    read_power_early_stage_display
        0x00000622:    48ab        .H      LDR      r0,[pc,#684] ; [0x8d0] = 0x2000003c
        0x00000624:    3080        .0      ADDS     r0,r0,#0x80
        0x00000626:    6c80        .l      LDR      r0,[r0,#0x48]
        0x00000628:    4770        pG      BX       lr
    read_mode_early_stage_display
        0x0000062a:    48a9        .H      LDR      r0,[pc,#676] ; [0x8d0] = 0x2000003c
        0x0000062c:    3080        .0      ADDS     r0,r0,#0x80
        0x0000062e:    6cc0        .l      LDR      r0,[r0,#0x4c]
        0x00000630:    4770        pG      BX       lr
    read_time_early_trigger_display
        0x00000632:    48a7        .H      LDR      r0,[pc,#668] ; [0x8d0] = 0x2000003c
        0x00000634:    3080        .0      ADDS     r0,r0,#0x80
        0x00000636:    6cc1        .l      LDR      r1,[r0,#0x4c]
        0x00000638:    2901        .)      CMP      r1,#1
        0x0000063a:    d001        ..      BEQ      0x640 ; read_time_early_trigger_display + 14
        0x0000063c:    2000        .       MOVS     r0,#0
        0x0000063e:    4770        pG      BX       lr
        0x00000640:    6d00        .m      LDR      r0,[r0,#0x50]
        0x00000642:    4770        pG      BX       lr
    read_distance_early_trigger_display
        0x00000644:    48a2        .H      LDR      r0,[pc,#648] ; [0x8d0] = 0x2000003c
        0x00000646:    3080        .0      ADDS     r0,r0,#0x80
        0x00000648:    6cc1        .l      LDR      r1,[r0,#0x4c]
        0x0000064a:    2902        .)      CMP      r1,#2
        0x0000064c:    d001        ..      BEQ      0x652 ; read_distance_early_trigger_display + 14
        0x0000064e:    2000        .       MOVS     r0,#0
        0x00000650:    4770        pG      BX       lr
        0x00000652:    6d00        .m      LDR      r0,[r0,#0x50]
        0x00000654:    4770        pG      BX       lr
    write_power_after_stage_set
        0x00000656:    499e        .I      LDR      r1,[pc,#632] ; [0x8d0] = 0x2000003c
        0x00000658:    64c8        .d      STR      r0,[r1,#0x4c]
        0x0000065a:    4770        pG      BX       lr
    write_mode_after_stage_set
        0x0000065c:    499c        .I      LDR      r1,[pc,#624] ; [0x8d0] = 0x2000003c
        0x0000065e:    3180        .1      ADDS     r1,r1,#0x80
        0x00000660:    6688        .f      STR      r0,[r1,#0x68]
        0x00000662:    4770        pG      BX       lr
    write_time_after_trigger_set
        0x00000664:    499a        .I      LDR      r1,[pc,#616] ; [0x8d0] = 0x2000003c
        0x00000666:    6508        .e      STR      r0,[r1,#0x50]
        0x00000668:    4770        pG      BX       lr
    write_distance_after_trigger_set
        0x0000066a:    4999        .I      LDR      r1,[pc,#612] ; [0x8d0] = 0x2000003c
        0x0000066c:    6548        He      STR      r0,[r1,#0x54]
        0x0000066e:    4770        pG      BX       lr
    write_time_on_after_stage_set
        0x00000670:    4997        .I      LDR      r1,[pc,#604] ; [0x8d0] = 0x2000003c
        0x00000672:    6588        .e      STR      r0,[r1,#0x58]
        0x00000674:    4770        pG      BX       lr
    read_power_after_stage_display
        0x00000676:    4896        .H      LDR      r0,[pc,#600] ; [0x8d0] = 0x2000003c
        0x00000678:    3080        .0      ADDS     r0,r0,#0x80
        0x0000067a:    6d80        .m      LDR      r0,[r0,#0x58]
        0x0000067c:    4770        pG      BX       lr
    read_mode_after_stage_display
        0x0000067e:    4894        .H      LDR      r0,[pc,#592] ; [0x8d0] = 0x2000003c
        0x00000680:    3080        .0      ADDS     r0,r0,#0x80
        0x00000682:    6dc0        .m      LDR      r0,[r0,#0x5c]
        0x00000684:    4770        pG      BX       lr
    read_time_after_trigger_display
        0x00000686:    4892        .H      LDR      r0,[pc,#584] ; [0x8d0] = 0x2000003c
        0x00000688:    3080        .0      ADDS     r0,r0,#0x80
        0x0000068a:    6dc1        .m      LDR      r1,[r0,#0x5c]
        0x0000068c:    2904        .)      CMP      r1,#4
        0x0000068e:    d001        ..      BEQ      0x694 ; read_time_after_trigger_display + 14
        0x00000690:    2000        .       MOVS     r0,#0
        0x00000692:    4770        pG      BX       lr
        0x00000694:    6e00        .n      LDR      r0,[r0,#0x60]
        0x00000696:    4770        pG      BX       lr
    read_distance_after_trigger_display
        0x00000698:    488d        .H      LDR      r0,[pc,#564] ; [0x8d0] = 0x2000003c
        0x0000069a:    3080        .0      ADDS     r0,r0,#0x80
        0x0000069c:    6dc1        .m      LDR      r1,[r0,#0x5c]
        0x0000069e:    2905        .)      CMP      r1,#5
        0x000006a0:    d001        ..      BEQ      0x6a6 ; read_distance_after_trigger_display + 14
        0x000006a2:    2000        .       MOVS     r0,#0
        0x000006a4:    4770        pG      BX       lr
        0x000006a6:    6e00        .n      LDR      r0,[r0,#0x60]
        0x000006a8:    4770        pG      BX       lr
    read_time_on_after_stage_display
        0x000006aa:    4889        .H      LDR      r0,[pc,#548] ; [0x8d0] = 0x2000003c
        0x000006ac:    3080        .0      ADDS     r0,r0,#0x80
        0x000006ae:    6e40        @n      LDR      r0,[r0,#0x64]
        0x000006b0:    4770        pG      BX       lr
    write_history_point_set
        0x000006b2:    4987        .I      LDR      r1,[pc,#540] ; [0x8d0] = 0x2000003c
        0x000006b4:    6e09        .n      LDR      r1,[r1,#0x60]
        0x000006b6:    4281        .B      CMP      r1,r0
        0x000006b8:    d305        ..      BCC      0x6c6 ; write_history_point_set + 20
        0x000006ba:    28ff        .(      CMP      r0,#0xff
        0x000006bc:    d803        ..      BHI      0x6c6 ; write_history_point_set + 20
        0x000006be:    2800        .(      CMP      r0,#0
        0x000006c0:    d001        ..      BEQ      0x6c6 ; write_history_point_set + 20
        0x000006c2:    4984        .I      LDR      r1,[pc,#528] ; [0x8d4] = 0x2000013c
        0x000006c4:    63c8        .c      STR      r0,[r1,#0x3c]
        0x000006c6:    4770        pG      BX       lr
    read_history_point_display
        0x000006c8:    4881        .H      LDR      r0,[pc,#516] ; [0x8d0] = 0x2000003c
        0x000006ca:    6e00        .n      LDR      r0,[r0,#0x60]
        0x000006cc:    4770        pG      BX       lr
    read_history_point_set
        0x000006ce:    4881        .H      LDR      r0,[pc,#516] ; [0x8d4] = 0x2000013c
        0x000006d0:    6bc0        .k      LDR      r0,[r0,#0x3c]
        0x000006d2:    4770        pG      BX       lr
    read_freq_delta
        0x000006d4:    487f        .H      LDR      r0,[pc,#508] ; [0x8d4] = 0x2000013c
        0x000006d6:    4980        .I      LDR      r1,[pc,#512] ; [0x8d8] = 0x20000764
        0x000006d8:    6bc0        .k      LDR      r0,[r0,#0x3c]
        0x000006da:    eb0000c0    ....    ADD      r0,r0,r0,LSL #3
        0x000006de:    f8510030    Q.0.    LDR      r0,[r1,r0,LSL #3]
        0x000006e2:    4770        pG      BX       lr
    read_freq_start
        0x000006e4:    487b        {H      LDR      r0,[pc,#492] ; [0x8d4] = 0x2000013c
        0x000006e6:    497c        |I      LDR      r1,[pc,#496] ; [0x8d8] = 0x20000764
        0x000006e8:    6bc0        .k      LDR      r0,[r0,#0x3c]
        0x000006ea:    eb0000c0    ....    ADD      r0,r0,r0,LSL #3
        0x000006ee:    eb0100c0    ....    ADD      r0,r1,r0,LSL #3
        0x000006f2:    6840        @h      LDR      r0,[r0,#4]
        0x000006f4:    4770        pG      BX       lr
    read_freq_end
        0x000006f6:    4877        wH      LDR      r0,[pc,#476] ; [0x8d4] = 0x2000013c
        0x000006f8:    4977        wI      LDR      r1,[pc,#476] ; [0x8d8] = 0x20000764
        0x000006fa:    6bc0        .k      LDR      r0,[r0,#0x3c]
        0x000006fc:    eb0000c0    ....    ADD      r0,r0,r0,LSL #3
        0x00000700:    eb0100c0    ....    ADD      r0,r1,r0,LSL #3
        0x00000704:    6880        .h      LDR      r0,[r0,#8]
        0x00000706:    4770        pG      BX       lr
    read_freq_max
        0x00000708:    4872        rH      LDR      r0,[pc,#456] ; [0x8d4] = 0x2000013c
        0x0000070a:    4973        sI      LDR      r1,[pc,#460] ; [0x8d8] = 0x20000764
        0x0000070c:    6bc0        .k      LDR      r0,[r0,#0x3c]
        0x0000070e:    eb0000c0    ....    ADD      r0,r0,r0,LSL #3
        0x00000712:    eb0100c0    ....    ADD      r0,r1,r0,LSL #3
        0x00000716:    68c0        .h      LDR      r0,[r0,#0xc]
        0x00000718:    4770        pG      BX       lr
    read_freq_min
        0x0000071a:    486e        nH      LDR      r0,[pc,#440] ; [0x8d4] = 0x2000013c
        0x0000071c:    496e        nI      LDR      r1,[pc,#440] ; [0x8d8] = 0x20000764
        0x0000071e:    6bc0        .k      LDR      r0,[r0,#0x3c]
        0x00000720:    eb0000c0    ....    ADD      r0,r0,r0,LSL #3
        0x00000724:    eb0100c0    ....    ADD      r0,r1,r0,LSL #3
        0x00000728:    6900        .i      LDR      r0,[r0,#0x10]
        0x0000072a:    4770        pG      BX       lr
    read_P_max
        0x0000072c:    4869        iH      LDR      r0,[pc,#420] ; [0x8d4] = 0x2000013c
        0x0000072e:    496a        jI      LDR      r1,[pc,#424] ; [0x8d8] = 0x20000764
        0x00000730:    6bc0        .k      LDR      r0,[r0,#0x3c]
        0x00000732:    eb0000c0    ....    ADD      r0,r0,r0,LSL #3
        0x00000736:    eb0100c0    ....    ADD      r0,r1,r0,LSL #3
        0x0000073a:    6940        @i      LDR      r0,[r0,#0x14]
        0x0000073c:    4770        pG      BX       lr
    read_avg_power
        0x0000073e:    4865        eH      LDR      r0,[pc,#404] ; [0x8d4] = 0x2000013c
        0x00000740:    4965        eI      LDR      r1,[pc,#404] ; [0x8d8] = 0x20000764
        0x00000742:    6bc0        .k      LDR      r0,[r0,#0x3c]
        0x00000744:    eb0000c0    ....    ADD      r0,r0,r0,LSL #3
        0x00000748:    eb0100c0    ....    ADD      r0,r1,r0,LSL #3
        0x0000074c:    6980        .i      LDR      r0,[r0,#0x18]
        0x0000074e:    4770        pG      BX       lr
    read_energy_display
        0x00000750:    4860        `H      LDR      r0,[pc,#384] ; [0x8d4] = 0x2000013c
        0x00000752:    4961        aI      LDR      r1,[pc,#388] ; [0x8d8] = 0x20000764
        0x00000754:    6bc0        .k      LDR      r0,[r0,#0x3c]
        0x00000756:    eb0000c0    ....    ADD      r0,r0,r0,LSL #3
        0x0000075a:    eb0100c0    ....    ADD      r0,r1,r0,LSL #3
        0x0000075e:    69c0        .i      LDR      r0,[r0,#0x1c]
        0x00000760:    4770        pG      BX       lr
    read_time_on
        0x00000762:    485c        \H      LDR      r0,[pc,#368] ; [0x8d4] = 0x2000013c
        0x00000764:    495c        \I      LDR      r1,[pc,#368] ; [0x8d8] = 0x20000764
        0x00000766:    6bc0        .k      LDR      r0,[r0,#0x3c]
        0x00000768:    eb0000c0    ....    ADD      r0,r0,r0,LSL #3
        0x0000076c:    eb0100c0    ....    ADD      r0,r1,r0,LSL #3
        0x00000770:    6a00        .j      LDR      r0,[r0,#0x20]
        0x00000772:    4770        pG      BX       lr
    read_F_set_history
        0x00000774:    4857        WH      LDR      r0,[pc,#348] ; [0x8d4] = 0x2000013c
        0x00000776:    4958        XI      LDR      r1,[pc,#352] ; [0x8d8] = 0x20000764
        0x00000778:    6bc0        .k      LDR      r0,[r0,#0x3c]
        0x0000077a:    eb0000c0    ....    ADD      r0,r0,r0,LSL #3
        0x0000077e:    eb0100c0    ....    ADD      r0,r1,r0,LSL #3
        0x00000782:    6a40        @j      LDR      r0,[r0,#0x24]
        0x00000784:    4770        pG      BX       lr
    read_F_start
        0x00000786:    4853        SH      LDR      r0,[pc,#332] ; [0x8d4] = 0x2000013c
        0x00000788:    4953        SI      LDR      r1,[pc,#332] ; [0x8d8] = 0x20000764
        0x0000078a:    6bc0        .k      LDR      r0,[r0,#0x3c]
        0x0000078c:    eb0000c0    ....    ADD      r0,r0,r0,LSL #3
        0x00000790:    eb0100c0    ....    ADD      r0,r1,r0,LSL #3
        0x00000794:    6a80        .j      LDR      r0,[r0,#0x28]
        0x00000796:    4770        pG      BX       lr
    read_F_max
        0x00000798:    484e        NH      LDR      r0,[pc,#312] ; [0x8d4] = 0x2000013c
        0x0000079a:    494f        OI      LDR      r1,[pc,#316] ; [0x8d8] = 0x20000764
        0x0000079c:    6bc0        .k      LDR      r0,[r0,#0x3c]
        0x0000079e:    eb0000c0    ....    ADD      r0,r0,r0,LSL #3
        0x000007a2:    eb0100c0    ....    ADD      r0,r1,r0,LSL #3
        0x000007a6:    6ac0        .j      LDR      r0,[r0,#0x2c]
        0x000007a8:    4770        pG      BX       lr
    read_encoder_speed_history
        0x000007aa:    484a        JH      LDR      r0,[pc,#296] ; [0x8d4] = 0x2000013c
        0x000007ac:    494a        JI      LDR      r1,[pc,#296] ; [0x8d8] = 0x20000764
        0x000007ae:    6bc0        .k      LDR      r0,[r0,#0x3c]
        0x000007b0:    eb0000c0    ....    ADD      r0,r0,r0,LSL #3
        0x000007b4:    eb0100c0    ....    ADD      r0,r1,r0,LSL #3
        0x000007b8:    6b00        .k      LDR      r0,[r0,#0x30]
        0x000007ba:    4770        pG      BX       lr
    read_distance_reached
        0x000007bc:    4845        EH      LDR      r0,[pc,#276] ; [0x8d4] = 0x2000013c
        0x000007be:    4946        FI      LDR      r1,[pc,#280] ; [0x8d8] = 0x20000764
        0x000007c0:    6bc0        .k      LDR      r0,[r0,#0x3c]
        0x000007c2:    eb0000c0    ....    ADD      r0,r0,r0,LSL #3
        0x000007c6:    eb0100c0    ....    ADD      r0,r1,r0,LSL #3
        0x000007ca:    6b40        @k      LDR      r0,[r0,#0x34]
        0x000007cc:    4770        pG      BX       lr
    read_absolute_hold
        0x000007ce:    4841        AH      LDR      r0,[pc,#260] ; [0x8d4] = 0x2000013c
        0x000007d0:    4941        AI      LDR      r1,[pc,#260] ; [0x8d8] = 0x20000764
        0x000007d2:    6bc0        .k      LDR      r0,[r0,#0x3c]
        0x000007d4:    eb0000c0    ....    ADD      r0,r0,r0,LSL #3
        0x000007d8:    eb0100c0    ....    ADD      r0,r1,r0,LSL #3
        0x000007dc:    6b80        .k      LDR      r0,[r0,#0x38]
        0x000007de:    4770        pG      BX       lr
    read_distance_travelled
        0x000007e0:    483c        <H      LDR      r0,[pc,#240] ; [0x8d4] = 0x2000013c
        0x000007e2:    493d        =I      LDR      r1,[pc,#244] ; [0x8d8] = 0x20000764
        0x000007e4:    6bc0        .k      LDR      r0,[r0,#0x3c]
        0x000007e6:    eb0000c0    ....    ADD      r0,r0,r0,LSL #3
        0x000007ea:    eb0100c0    ....    ADD      r0,r1,r0,LSL #3
        0x000007ee:    6bc0        .k      LDR      r0,[r0,#0x3c]
        0x000007f0:    4770        pG      BX       lr
    read_collapse_hold
        0x000007f2:    4838        8H      LDR      r0,[pc,#224] ; [0x8d4] = 0x2000013c
        0x000007f4:    4938        8I      LDR      r1,[pc,#224] ; [0x8d8] = 0x20000764
        0x000007f6:    6bc0        .k      LDR      r0,[r0,#0x3c]
        0x000007f8:    eb0000c0    ....    ADD      r0,r0,r0,LSL #3
        0x000007fc:    eb0100c0    ....    ADD      r0,r1,r0,LSL #3
        0x00000800:    6c00        .l      LDR      r0,[r0,#0x40]
        0x00000802:    4770        pG      BX       lr
    read_total_time_display
        0x00000804:    4833        3H      LDR      r0,[pc,#204] ; [0x8d4] = 0x2000013c
        0x00000806:    4934        4I      LDR      r1,[pc,#208] ; [0x8d8] = 0x20000764
        0x00000808:    6bc0        .k      LDR      r0,[r0,#0x3c]
        0x0000080a:    eb0000c0    ....    ADD      r0,r0,r0,LSL #3
        0x0000080e:    eb0100c0    ....    ADD      r0,r1,r0,LSL #3
        0x00000812:    6c40        @l      LDR      r0,[r0,#0x44]
        0x00000814:    4770        pG      BX       lr
    read_pressure_display
        0x00000816:    482f        /H      LDR      r0,[pc,#188] ; [0x8d4] = 0x2000013c
        0x00000818:    6800        .h      LDR      r0,[r0,#0]
        0x0000081a:    4770        pG      BX       lr
    read_power_read_display
        0x0000081c:    482c        ,H      LDR      r0,[pc,#176] ; [0x8d0] = 0x2000003c
        0x0000081e:    3080        .0      ADDS     r0,r0,#0x80
        0x00000820:    6f00        .o      LDR      r0,[r0,#0x70]
        0x00000822:    4770        pG      BX       lr
    read_timeout_occured
        0x00000824:    482a        *H      LDR      r0,[pc,#168] ; [0x8d0] = 0x2000003c
        0x00000826:    6dc0        .m      LDR      r0,[r0,#0x5c]
        0x00000828:    4770        pG      BX       lr
    read_overload_display
        0x0000082a:    482a        *H      LDR      r0,[pc,#168] ; [0x8d4] = 0x2000013c
        0x0000082c:    6840        @h      LDR      r0,[r0,#4]
        0x0000082e:    4770        pG      BX       lr
    read_encoder_speed_display
        0x00000830:    4927        'I      LDR      r1,[pc,#156] ; [0x8d0] = 0x2000003c
        0x00000832:    4827        'H      LDR      r0,[pc,#156] ; [0x8d0] = 0x2000003c
        0x00000834:    3180        .1      ADDS     r1,r1,#0x80
        0x00000836:    6f80        .o      LDR      r0,[r0,#0x78]
        0x00000838:    6f49        Io      LDR      r1,[r1,#0x74]
        0x0000083a:    4308        .C      ORRS     r0,r0,r1
        0x0000083c:    d001        ..      BEQ      0x842 ; read_encoder_speed_display + 18
        0x0000083e:    4825        %H      LDR      r0,[pc,#148] ; [0x8d4] = 0x2000013c
        0x00000840:    6b80        .k      LDR      r0,[r0,#0x38]
        0x00000842:    4770        pG      BX       lr
    read_freq_display
        0x00000844:    4822        "H      LDR      r0,[pc,#136] ; [0x8d0] = 0x2000003c
        0x00000846:    6f40        @o      LDR      r0,[r0,#0x74]
        0x00000848:    4770        pG      BX       lr
    read_force_display
        0x0000084a:    4821        !H      LDR      r0,[pc,#132] ; [0x8d0] = 0x2000003c
        0x0000084c:    3080        .0      ADDS     r0,r0,#0x80
        0x0000084e:    6f40        @o      LDR      r0,[r0,#0x74]
        0x00000850:    4770        pG      BX       lr
    read_distance_display
        0x00000852:    481f        .H      LDR      r0,[pc,#124] ; [0x8d0] = 0x2000003c
        0x00000854:    3080        .0      ADDS     r0,r0,#0x80
        0x00000856:    6f80        .o      LDR      r0,[r0,#0x78]
        0x00000858:    4770        pG      BX       lr
    write_head_sweep_set
        0x0000085a:    491e        .I      LDR      r1,[pc,#120] ; [0x8d4] = 0x2000013c
        0x0000085c:    6488        .d      STR      r0,[r1,#0x48]
        0x0000085e:    4770        pG      BX       lr
    read_head_sweep_display
        0x00000860:    481c        .H      LDR      r0,[pc,#112] ; [0x8d4] = 0x2000013c
        0x00000862:    6c40        @l      LDR      r0,[r0,#0x44]
        0x00000864:    4770        pG      BX       lr
    read_anti_resonance_frequency
        0x00000866:    481b        .H      LDR      r0,[pc,#108] ; [0x8d4] = 0x2000013c
        0x00000868:    6cc0        .l      LDR      r0,[r0,#0x4c]
        0x0000086a:    4770        pG      BX       lr
    read_resonance_frequency
        0x0000086c:    4819        .H      LDR      r0,[pc,#100] ; [0x8d4] = 0x2000013c
        0x0000086e:    6d00        .m      LDR      r0,[r0,#0x50]
        0x00000870:    4770        pG      BX       lr
    read_broken_transducer
        0x00000872:    4817        .H      LDR      r0,[pc,#92] ; [0x8d0] = 0x2000003c
        0x00000874:    6e40        @n      LDR      r0,[r0,#0x64]
        0x00000876:    4770        pG      BX       lr
    write_button_test
        0x00000878:    4916        .I      LDR      r1,[pc,#88] ; [0x8d4] = 0x2000013c
        0x0000087a:    6548        He      STR      r0,[r1,#0x54]
        0x0000087c:    4770        pG      BX       lr
    read_button_test_display
        0x0000087e:    4815        .H      LDR      r0,[pc,#84] ; [0x8d4] = 0x2000013c
        0x00000880:    6d80        .m      LDR      r0,[r0,#0x58]
        0x00000882:    4770        pG      BX       lr
    write_head_up_set
        0x00000884:    4913        .I      LDR      r1,[pc,#76] ; [0x8d4] = 0x2000013c
        0x00000886:    65c8        .e      STR      r0,[r1,#0x5c]
        0x00000888:    4770        pG      BX       lr
    write_entered_main_page
        0x0000088a:    4911        .I      LDR      r1,[pc,#68] ; [0x8d0] = 0x2000003c
        0x0000088c:    6688        .f      STR      r0,[r1,#0x68]
        0x0000088e:    4770        pG      BX       lr
    read_entered_main_page
        0x00000890:    480f        .H      LDR      r0,[pc,#60] ; [0x8d0] = 0x2000003c
        0x00000892:    6e80        .n      LDR      r0,[r0,#0x68]
        0x00000894:    4770        pG      BX       lr
    fpga_to_mcu
        0x00000896:    e92d4ff0    -..O    PUSH     {r4-r11,lr}
        0x0000089a:    4810        .H      LDR      r0,[pc,#64] ; [0x8dc] = 0x20004f1c
        0x0000089c:    b088        ..      SUB      sp,sp,#0x20
        0x0000089e:    7801        .x      LDRB     r1,[r0,#0]
        0x000008a0:    29ff        .)      CMP      r1,#0xff
        0x000008a2:    d17d        }.      BNE      0x9a0 ; fpga_to_mcu + 266
        0x000008a4:    7841        Ax      LDRB     r1,[r0,#1]
        0x000008a6:    29ff        .)      CMP      r1,#0xff
        0x000008a8:    d17a        z.      BNE      0x9a0 ; fpga_to_mcu + 266
        0x000008aa:    7881        .x      LDRB     r1,[r0,#2]
        0x000008ac:    29ff        .)      CMP      r1,#0xff
        0x000008ae:    d177        w.      BNE      0x9a0 ; fpga_to_mcu + 266
        0x000008b0:    78c1        .x      LDRB     r1,[r0,#3]
        0x000008b2:    29ff        .)      CMP      r1,#0xff
        0x000008b4:    d174        t.      BNE      0x9a0 ; fpga_to_mcu + 266
        0x000008b6:    f8901053    ..S.    LDRB     r1,[r0,#0x53]
        0x000008ba:    2968        h)      CMP      r1,#0x68
        0x000008bc:    d170        p.      BNE      0x9a0 ; fpga_to_mcu + 266
        0x000008be:    4b04        .K      LDR      r3,[pc,#16] ; [0x8d0] = 0x2000003c
        0x000008c0:    7901        .y      LDRB     r1,[r0,#4]
        0x000008c2:    6719        .g      STR      r1,[r3,#0x70]
        0x000008c4:    f8301f05    0...    LDRH     r1,[r0,#5]!
        0x000008c8:    ba49        I.      REV16    r1,r1
        0x000008ca:    6799        .g      STR      r1,[r3,#0x78]
        0x000008cc:    8841        A.      LDRH     r1,[r0,#2]
        0x000008ce:    e007        ..      B        0x8e0 ; fpga_to_mcu + 74
    $d
        0x000008d0:    2000003c    <..     DCD    536870972
        0x000008d4:    2000013c    <..     DCD    536871228
        0x000008d8:    20000764    d..     DCD    536872804
        0x000008dc:    20004f1c    .O.     DCD    536891164
    $t
        0x000008e0:    ba4a        J.      REV16    r2,r1
        0x000008e2:    f1030180    ....    ADD      r1,r3,#0x80
        0x000008e6:    60ca        .`      STR      r2,[r1,#0xc]
        0x000008e8:    8882        ..      LDRH     r2,[r0,#4]
        0x000008ea:    ba52        R.      REV16    r2,r2
        0x000008ec:    608a        .`      STR      r2,[r1,#8]
        0x000008ee:    88c2        ..      LDRH     r2,[r0,#6]
        0x000008f0:    ba52        R.      REV16    r2,r2
        0x000008f2:    67da        .g      STR      r2,[r3,#0x7c]
        0x000008f4:    9207        ..      STR      r2,[sp,#0x1c]
        0x000008f6:    8902        ..      LDRH     r2,[r0,#8]
        0x000008f8:    ba52        R.      REV16    r2,r2
        0x000008fa:    610a        .a      STR      r2,[r1,#0x10]
        0x000008fc:    8942        B.      LDRH     r2,[r0,#0xa]
        0x000008fe:    ba52        R.      REV16    r2,r2
        0x00000900:    675a        Zg      STR      r2,[r3,#0x74]
        0x00000902:    8982        ..      LDRH     r2,[r0,#0xc]
        0x00000904:    ba52        R.      REV16    r2,r2
        0x00000906:    66ca        .f      STR      r2,[r1,#0x6c]
        0x00000908:    89c2        ..      LDRH     r2,[r0,#0xe]
        0x0000090a:    ba52        R.      REV16    r2,r2
        0x0000090c:    4693        .F      MOV      r11,r2
        0x0000090e:    670a        .g      STR      r2,[r1,#0x70]
        0x00000910:    7bc2        .{      LDRB     r2,[r0,#0xf]
        0x00000912:    70da        .p      STRB     r2,[r3,#3]
        0x00000914:    8a02        ..      LDRH     r2,[r0,#0x10]
        0x00000916:    ba52        R.      REV16    r2,r2
        0x00000918:    674a        Jg      STR      r2,[r1,#0x74]
        0x0000091a:    8a42        B.      LDRH     r2,[r0,#0x12]
        0x0000091c:    ba52        R.      REV16    r2,r2
        0x0000091e:    678a        .g      STR      r2,[r1,#0x78]
        0x00000920:    8a82        ..      LDRH     r2,[r0,#0x14]
        0x00000922:    ba52        R.      REV16    r2,r2
        0x00000924:    67ca        .g      STR      r2,[r1,#0x7c]
        0x00000926:    9206        ..      STR      r2,[sp,#0x18]
        0x00000928:    7d82        .}      LDRB     r2,[r0,#0x16]
        0x0000092a:    f0020401    ....    AND      r4,r2,#1
        0x0000092e:    f1010280    ....    ADD      r2,r1,#0x80
        0x00000932:    6714        .g      STR      r4,[r2,#0x70]
        0x00000934:    9405        ..      STR      r4,[sp,#0x14]
        0x00000936:    7dc4        .}      LDRB     r4,[r0,#0x17]
        0x00000938:    f0040501    ....    AND      r5,r4,#1
        0x0000093c:    6595        .e      STR      r5,[r2,#0x58]
        0x0000093e:    f3c40540    ..@.    UBFX     r5,r4,#1,#1
        0x00000942:    665d        ]f      STR      r5,[r3,#0x64]
        0x00000944:    f3c40580    ....    UBFX     r5,r4,#2,#1
        0x00000948:    711d        .q      STRB     r5,[r3,#4]
        0x0000094a:    f3c405c0    ....    UBFX     r5,r4,#3,#1
        0x0000094e:    6455        Ud      STR      r5,[r2,#0x44]
        0x00000950:    f3c41500    ....    UBFX     r5,r4,#4,#1
        0x00000954:    65dd        .e      STR      r5,[r3,#0x5c]
        0x00000956:    f3c41540    ..@.    UBFX     r5,r4,#5,#1
        0x0000095a:    6055        U`      STR      r5,[r2,#4]
        0x0000095c:    f3c41580    ....    UBFX     r5,r4,#6,#1
        0x00000960:    09e4        ..      LSRS     r4,r4,#7
        0x00000962:    600d        .`      STR      r5,[r1,#0]
        0x00000964:    709c        .p      STRB     r4,[r3,#2]
        0x00000966:    8b04        ..      LDRH     r4,[r0,#0x18]
        0x00000968:    ba64        d.      REV16    r4,r4
        0x0000096a:    60d4        .`      STR      r4,[r2,#0xc]
        0x0000096c:    9404        ..      STR      r4,[sp,#0x10]
        0x0000096e:    8b44        D.      LDRH     r4,[r0,#0x1a]
        0x00000970:    ba64        d.      REV16    r4,r4
        0x00000972:    6114        .a      STR      r4,[r2,#0x10]
        0x00000974:    9403        ..      STR      r4,[sp,#0xc]
        0x00000976:    8b84        ..      LDRH     r4,[r0,#0x1c]
        0x00000978:    fa94f894    ....    REV16    r8,r4
        0x0000097c:    f8c28014    ....    STR      r8,[r2,#0x14]
        0x00000980:    8bc4        ..      LDRH     r4,[r0,#0x1e]
        0x00000982:    fa94fc94    ....    REV16    r12,r4
        0x00000986:    f8c2c018    ....    STR      r12,[r2,#0x18]
        0x0000098a:    8c04        ..      LDRH     r4,[r0,#0x20]
        0x0000098c:    ba64        d.      REV16    r4,r4
        0x0000098e:    61d4        .a      STR      r4,[r2,#0x1c]
        0x00000990:    9402        ..      STR      r4,[sp,#8]
        0x00000992:    8c44        D.      LDRH     r4,[r0,#0x22]
        0x00000994:    ba64        d.      REV16    r4,r4
        0x00000996:    6214        .b      STR      r4,[r2,#0x20]
        0x00000998:    9401        ..      STR      r4,[sp,#4]
        0x0000099a:    8c84        ..      LDRH     r4,[r0,#0x24]
        0x0000099c:    ba64        d.      REV16    r4,r4
        0x0000099e:    e000        ..      B        0x9a2 ; fpga_to_mcu + 268
        0x000009a0:    e093        ..      B        0xaca ; fpga_to_mcu + 564
        0x000009a2:    46a6        .F      MOV      lr,r4
        0x000009a4:    6254        Tb      STR      r4,[r2,#0x24]
        0x000009a6:    8cc4        ..      LDRH     r4,[r0,#0x26]
        0x000009a8:    ba64        d.      REV16    r4,r4
        0x000009aa:    62d4        .b      STR      r4,[r2,#0x2c]
        0x000009ac:    9400        ..      STR      r4,[sp,#0]
        0x000009ae:    8d04        ..      LDRH     r4,[r0,#0x28]
        0x000009b0:    ba67        g.      REV16    r7,r4
        0x000009b2:    6297        .b      STR      r7,[r2,#0x28]
        0x000009b4:    8d44        D.      LDRH     r4,[r0,#0x2a]
        0x000009b6:    ba66        f.      REV16    r6,r4
        0x000009b8:    6316        .c      STR      r6,[r2,#0x30]
        0x000009ba:    8d84        ..      LDRH     r4,[r0,#0x2c]
        0x000009bc:    ba64        d.      REV16    r4,r4
        0x000009be:    614c        La      STR      r4,[r1,#0x14]
        0x000009c0:    f890402e    ...@    LDRB     r4,[r0,#0x2e]
        0x000009c4:    638c        .c      STR      r4,[r1,#0x38]
        0x000009c6:    f890402f    ../@    LDRB     r4,[r0,#0x2f]
        0x000009ca:    644c        Ld      STR      r4,[r1,#0x44]
        0x000009cc:    8e04        ..      LDRH     r4,[r0,#0x30]
        0x000009ce:    ba64        d.      REV16    r4,r4
        0x000009d0:    640c        .d      STR      r4,[r1,#0x40]
        0x000009d2:    8e44        D.      LDRH     r4,[r0,#0x32]
        0x000009d4:    ba64        d.      REV16    r4,r4
        0x000009d6:    604c        L`      STR      r4,[r1,#4]
        0x000009d8:    8e84        ..      LDRH     r4,[r0,#0x34]
        0x000009da:    ba64        d.      REV16    r4,r4
        0x000009dc:    618c        .a      STR      r4,[r1,#0x18]
        0x000009de:    f8904036    ..6@    LDRB     r4,[r0,#0x36]
        0x000009e2:    648c        .d      STR      r4,[r1,#0x48]
        0x000009e4:    f8904037    ..7@    LDRB     r4,[r0,#0x37]
        0x000009e8:    64cc        .d      STR      r4,[r1,#0x4c]
        0x000009ea:    8f04        ..      LDRH     r4,[r0,#0x38]
        0x000009ec:    ba64        d.      REV16    r4,r4
        0x000009ee:    650c        .e      STR      r4,[r1,#0x50]
        0x000009f0:    f890403a    ..:@    LDRB     r4,[r0,#0x3a]
        0x000009f4:    658c        .e      STR      r4,[r1,#0x58]
        0x000009f6:    f890403b    ..;@    LDRB     r4,[r0,#0x3b]
        0x000009fa:    65cc        .e      STR      r4,[r1,#0x5c]
        0x000009fc:    8f84        ..      LDRH     r4,[r0,#0x3c]
        0x000009fe:    ba64        d.      REV16    r4,r4
        0x00000a00:    660c        .f      STR      r4,[r1,#0x60]
        0x00000a02:    8fc4        ..      LDRH     r4,[r0,#0x3e]
        0x00000a04:    ba64        d.      REV16    r4,r4
        0x00000a06:    664c        Lf      STR      r4,[r1,#0x64]
        0x00000a08:    f8b04040    ..@@    LDRH     r4,[r0,#0x40]
        0x00000a0c:    ba64        d.      REV16    r4,r4
        0x00000a0e:    46a2        .F      MOV      r10,r4
        0x00000a10:    6094        .`      STR      r4,[r2,#8]
        0x00000a12:    f8b04042    ..B@    LDRH     r4,[r0,#0x42]
        0x00000a16:    ba64        d.      REV16    r4,r4
        0x00000a18:    6514        .e      STR      r4,[r2,#0x50]
        0x00000a1a:    f8b04044    ..D@    LDRH     r4,[r0,#0x44]
        0x00000a1e:    ba64        d.      REV16    r4,r4
        0x00000a20:    64d4        .d      STR      r4,[r2,#0x4c]
        0x00000a22:    f8b04046    ..F@    LDRH     r4,[r0,#0x46]
        0x00000a26:    ba64        d.      REV16    r4,r4
        0x00000a28:    46a1        .F      MOV      r9,r4
        0x00000a2a:    6394        .c      STR      r4,[r2,#0x38]
        0x00000a2c:    f8904048    ..H@    LDRB     r4,[r0,#0x48]
        0x00000a30:    661c        .f      STR      r4,[r3,#0x60]
        0x00000a32:    f8b03049    ..I0    LDRH     r3,[r0,#0x49]
        0x00000a36:    ba5b        [.      REV16    r3,r3
        0x00000a38:    624b        Kb      STR      r3,[r1,#0x24]
        0x00000a3a:    f8b0104b    ..K.    LDRH     r1,[r0,#0x4b]
        0x00000a3e:    ba49        I.      REV16    r1,r1
        0x00000a40:    6011        .`      STR      r1,[r2,#0]
        0x00000a42:    f890004d    ..M.    LDRB     r0,[r0,#0x4d]
        0x00000a46:    6350        Pc      STR      r0,[r2,#0x34]
        0x00000a48:    b145        E.      CBZ      r5,0xa5c ; fpga_to_mcu + 454
        0x00000a4a:    6e11        .n      LDR      r1,[r2,#0x60]
        0x00000a4c:    b181        ..      CBZ      r1,0xa70 ; fpga_to_mcu + 474
        0x00000a4e:    6e53        Sn      LDR      r3,[r2,#0x64]
        0x00000a50:    fb93f1f1    ....    SDIV     r1,r3,r1
        0x00000a54:    6411        .d      STR      r1,[r2,#0x40]
        0x00000a56:    2100        .!      MOVS     r1,#0
        0x00000a58:    6651        Qf      STR      r1,[r2,#0x64]
        0x00000a5a:    e008        ..      B        0xa6e ; fpga_to_mcu + 472
        0x00000a5c:    b945        E.      CBNZ     r5,0xa70 ; fpga_to_mcu + 474
        0x00000a5e:    9905        ..      LDR      r1,[sp,#0x14]
        0x00000a60:    b131        1.      CBZ      r1,0xa70 ; fpga_to_mcu + 474
        0x00000a62:    6e53        Sn      LDR      r3,[r2,#0x64]
        0x00000a64:    eb03010b    ....    ADD      r1,r3,r11
        0x00000a68:    6651        Qf      STR      r1,[r2,#0x64]
        0x00000a6a:    6e11        .n      LDR      r1,[r2,#0x60]
        0x00000a6c:    1c49        I.      ADDS     r1,r1,#1
        0x00000a6e:    6611        .f      STR      r1,[r2,#0x60]
        0x00000a70:    6e91        .n      LDR      r1,[r2,#0x68]
        0x00000a72:    1c49        I.      ADDS     r1,r1,#1
        0x00000a74:    66d1        .f      STR      r1,[r2,#0x6c]
        0x00000a76:    2d00        .-      CMP      r5,#0
        0x00000a78:    d027        '.      BEQ      0xaca ; fpga_to_mcu + 564
        0x00000a7a:    42a1        .B      CMP      r1,r4
        0x00000a7c:    d125        %.      BNE      0xaca ; fpga_to_mcu + 564
        0x00000a7e:    6694        .f      STR      r4,[r2,#0x68]
        0x00000a80:    eb0401c4    ....    ADD      r1,r4,r4,LSL #3
        0x00000a84:    63d4        .c      STR      r4,[r2,#0x3c]
        0x00000a86:    4cfa        .L      LDR      r4,[pc,#1000] ; [0xe70] = 0x20000764
        0x00000a88:    ebac0308    ....    SUB      r3,r12,r8
        0x00000a8c:    f8443031    D.10    STR      r3,[r4,r1,LSL #3]
        0x00000a90:    eb0401c1    ....    ADD      r1,r4,r1,LSL #3
        0x00000a94:    e9c18c01    ....    STRD     r8,r12,[r1,#4]
        0x00000a98:    9b03        ..      LDR      r3,[sp,#0xc]
        0x00000a9a:    60cb        .`      STR      r3,[r1,#0xc]
        0x00000a9c:    9b04        ..      LDR      r3,[sp,#0x10]
        0x00000a9e:    e9c13e04    ...>    STRD     r3,lr,[r1,#0x10]
        0x00000aa2:    6c12        .l      LDR      r2,[r2,#0x40]
        0x00000aa4:    618a        .a      STR      r2,[r1,#0x18]
        0x00000aa6:    9a06        ..      LDR      r2,[sp,#0x18]
        0x00000aa8:    61ca        .a      STR      r2,[r1,#0x1c]
        0x00000aaa:    9a00        ..      LDR      r2,[sp,#0]
        0x00000aac:    620a        .b      STR      r2,[r1,#0x20]
        0x00000aae:    9a07        ..      LDR      r2,[sp,#0x1c]
        0x00000ab0:    624a        Jb      STR      r2,[r1,#0x24]
        0x00000ab2:    9a02        ..      LDR      r2,[sp,#8]
        0x00000ab4:    628a        .b      STR      r2,[r1,#0x28]
        0x00000ab6:    9a01        ..      LDR      r2,[sp,#4]
        0x00000ab8:    634e        Nc      STR      r6,[r1,#0x34]
        0x00000aba:    e9c1290b    ...)    STRD     r2,r9,[r1,#0x2c]
        0x00000abe:    1832        2.      ADDS     r2,r6,r0
        0x00000ac0:    e9c1270e    ...'    STRD     r2,r7,[r1,#0x38]
        0x00000ac4:    4438        8D      ADD      r0,r0,r7
        0x00000ac6:    e9c10a10    ....    STRD     r0,r10,[r1,#0x40]
        0x00000aca:    b008        ..      ADD      sp,sp,#0x20
        0x00000acc:    e8bd8ff0    ....    POP      {r4-r11,pc}
    mcu_to_fpga
        0x00000ad0:    e92d4ff0    -..O    PUSH     {r4-r11,lr}
        0x00000ad4:    4ae7        .J      LDR      r2,[pc,#924] ; [0xe74] = 0x2000003c
        0x00000ad6:    2400        .$      MOVS     r4,#0
        0x00000ad8:    4610        .F      MOV      r0,r2
        0x00000ada:    7853        Sx      LDRB     r3,[r2,#1]
        0x00000adc:    6f86        .o      LDR      r6,[r0,#0x78]
        0x00000ade:    f5007580    ...u    ADD      r5,r0,#0x100
        0x00000ae2:    f50071c0    ...q    ADD      r1,r0,#0x180
        0x00000ae6:    2b09        .+      CMP      r3,#9
        0x00000ae8:    d069        i.      BEQ      0xbbe ; mcu_to_fpga + 238
        0x00000aea:    f44f60fa    O..`    MOV      r0,#0x7d0
        0x00000aee:    2b0a        .+      CMP      r3,#0xa
        0x00000af0:    d074        t.      BEQ      0xbdc ; mcu_to_fpga + 268
        0x00000af2:    2b07        .+      CMP      r3,#7
        0x00000af4:    d075        u.      BEQ      0xbe2 ; mcu_to_fpga + 274
        0x00000af6:    69d0        .i      LDR      r0,[r2,#0x1c]
        0x00000af8:    6088        .`      STR      r0,[r1,#8]
        0x00000afa:    6950        Pi      LDR      r0,[r2,#0x14]
        0x00000afc:    6248        Hb      STR      r0,[r1,#0x24]
        0x00000afe:    f8dfc374    ..t.    LDR      r12,[pc,#884] ; [0xe74] = 0x2000003c
        0x00000b02:    6b57        Wk      LDR      r7,[r2,#0x34]
        0x00000b04:    2001        .       MOVS     r0,#1
        0x00000b06:    f10c0c80    ....    ADD      r12,r12,#0x80
        0x00000b0a:    2f02        ./      CMP      r7,#2
        0x00000b0c:    d06c        l.      BEQ      0xbe8 ; mcu_to_fpga + 280
        0x00000b0e:    2f03        ./      CMP      r7,#3
        0x00000b10:    d06e        n.      BEQ      0xbf0 ; mcu_to_fpga + 288
        0x00000b12:    2f04        ./      CMP      r7,#4
        0x00000b14:    d077        w.      BEQ      0xc06 ; mcu_to_fpga + 310
        0x00000b16:    2f05        ./      CMP      r7,#5
        0x00000b18:    d07c        |.      BEQ      0xc14 ; mcu_to_fpga + 324
        0x00000b1a:    2f06        ./      CMP      r7,#6
        0x00000b1c:    d071        q.      BEQ      0xc02 ; mcu_to_fpga + 306
        0x00000b1e:    6ad7        .j      LDR      r7,[r2,#0x2c]
        0x00000b20:    604f        O`      STR      r7,[r1,#4]
        0x00000b22:    67ac        .g      STR      r4,[r5,#0x78]
        0x00000b24:    67ec        .g      STR      r4,[r5,#0x7c]
        0x00000b26:    600c        .`      STR      r4,[r1,#0]
        0x00000b28:    676c        lg      STR      r4,[r5,#0x74]
        0x00000b2a:    628c        .b      STR      r4,[r1,#0x28]
        0x00000b2c:    f8dc703c    ..<p    LDR      r7,[r12,#0x3c]
        0x00000b30:    2f03        ./      CMP      r7,#3
        0x00000b32:    d067        g.      BEQ      0xc04 ; mcu_to_fpga + 308
        0x00000b34:    2f04        ./      CMP      r7,#4
        0x00000b36:    d074        t.      BEQ      0xc22 ; mcu_to_fpga + 338
        0x00000b38:    2f05        ./      CMP      r7,#5
        0x00000b3a:    d073        s.      BEQ      0xc24 ; mcu_to_fpga + 340
        0x00000b3c:    2f06        ./      CMP      r7,#6
        0x00000b3e:    d072        r.      BEQ      0xc26 ; mcu_to_fpga + 342
        0x00000b40:    60cc        .`      STR      r4,[r1,#0xc]
        0x00000b42:    f8dc8054    ..T.    LDR      r8,[r12,#0x54]
        0x00000b46:    46c1        .F      MOV      r9,r8
        0x00000b48:    f1b80f01    ....    CMP      r8,#1
        0x00000b4c:    d06c        l.      BEQ      0xc28 ; mcu_to_fpga + 344
        0x00000b4e:    f1b90f02    ....    CMP      r9,#2
        0x00000b52:    d06a        j.      BEQ      0xc2a ; mcu_to_fpga + 346
        0x00000b54:    610c        .a      STR      r4,[r1,#0x10]
        0x00000b56:    f8dca068    ..h.    LDR      r10,[r12,#0x68]
        0x00000b5a:    f1ba0f04    ....    CMP      r10,#4
        0x00000b5e:    d06f        o.      BEQ      0xc40 ; mcu_to_fpga + 368
        0x00000b60:    f1ba0f05    ....    CMP      r10,#5
        0x00000b64:    d06d        m.      BEQ      0xc42 ; mcu_to_fpga + 370
        0x00000b66:    614c        La      STR      r4,[r1,#0x14]
        0x00000b68:    4694        .F      MOV      r12,r2
        0x00000b6a:    7892        .x      LDRB     r2,[r2,#2]
        0x00000b6c:    2a01        .*      CMP      r2,#1
        0x00000b6e:    d169        i.      BNE      0xc44 ; mcu_to_fpga + 372
        0x00000b70:    4ac0        .J      LDR      r2,[pc,#768] ; [0xe74] = 0x2000003c
        0x00000b72:    3280        .2      ADDS     r2,r2,#0x80
        0x00000b74:    6812        .h      LDR      r2,[r2,#0]
        0x00000b76:    2a01        .*      CMP      r2,#1
        0x00000b78:    d001        ..      BEQ      0xb7e ; mcu_to_fpga + 174
        0x00000b7a:    2b0a        .+      CMP      r3,#0xa
        0x00000b7c:    d162        b.      BNE      0xc44 ; mcu_to_fpga + 372
        0x00000b7e:    4abe        .J      LDR      r2,[pc,#760] ; [0xe78] = 0x20004f1c
        0x00000b80:    7813        .x      LDRB     r3,[r2,#0]
        0x00000b82:    2bff        .+      CMP      r3,#0xff
        0x00000b84:    d15e        ^.      BNE      0xc44 ; mcu_to_fpga + 372
        0x00000b86:    7853        Sx      LDRB     r3,[r2,#1]
        0x00000b88:    2bff        .+      CMP      r3,#0xff
        0x00000b8a:    d15b        [.      BNE      0xc44 ; mcu_to_fpga + 372
        0x00000b8c:    7893        .x      LDRB     r3,[r2,#2]
        0x00000b8e:    2bff        .+      CMP      r3,#0xff
        0x00000b90:    d158        X.      BNE      0xc44 ; mcu_to_fpga + 372
        0x00000b92:    78d3        .x      LDRB     r3,[r2,#3]
        0x00000b94:    2bff        .+      CMP      r3,#0xff
        0x00000b96:    d155        U.      BNE      0xc44 ; mcu_to_fpga + 372
        0x00000b98:    f8922053    ..S     LDRB     r2,[r2,#0x53]
        0x00000b9c:    2a68        h*      CMP      r2,#0x68
        0x00000b9e:    d151        Q.      BNE      0xc44 ; mcu_to_fpga + 372
        0x00000ba0:    46e6        .F      MOV      lr,r12
        0x00000ba2:    f8dcc070    ..p.    LDR      r12,[r12,#0x70]
        0x00000ba6:    468b        .F      MOV      r11,r1
        0x00000ba8:    f8d18024    ..$.    LDR      r8,[r1,#0x24]
        0x00000bac:    4ab3        .J      LDR      r2,[pc,#716] ; [0xe7c] = 0x40070000
        0x00000bae:    49b4        .I      LDR      r1,[pc,#720] ; [0xe80] = 0x40004898
        0x00000bb0:    45c4        .E      CMP      r12,r8
        0x00000bb2:    d071        q.      BEQ      0xc98 ; mcu_to_fpga + 456
        0x00000bb4:    24c0        .$      MOVS     r4,#0xc0
        0x00000bb6:    6014        .`      STR      r4,[r2,#0]
        0x00000bb8:    f8c28000    ....    STR      r8,[r2,#0]
        0x00000bbc:    e182        ..      B        0xec4 ; mcu_to_fpga + 1012
        0x00000bbe:    6de8        .m      LDR      r0,[r5,#0x5c]
        0x00000bc0:    2801        .(      CMP      r0,#1
        0x00000bc2:    d105        ..      BNE      0xbd0 ; mcu_to_fpga + 256
        0x00000bc4:    f44f70fa    O..p    MOV      r0,#0x1f4
        0x00000bc8:    b136        6.      CBZ      r6,0xbd8 ; mcu_to_fpga + 264
        0x00000bca:    4286        .B      CMP      r6,r0
        0x00000bcc:    d100        ..      BNE      0xbd0 ; mcu_to_fpga + 256
        0x00000bce:    65ec        .e      STR      r4,[r5,#0x5c]
        0x00000bd0:    608c        .`      STR      r4,[r1,#8]
        0x00000bd2:    e794        ..      B        0xafe ; mcu_to_fpga + 46
        0x00000bd4:    e002        ..      B        0xbdc ; mcu_to_fpga + 268
        0x00000bd6:    e004        ..      B        0xbe2 ; mcu_to_fpga + 274
        0x00000bd8:    6088        .`      STR      r0,[r1,#8]
        0x00000bda:    e790        ..      B        0xafe ; mcu_to_fpga + 46
        0x00000bdc:    6088        .`      STR      r0,[r1,#8]
        0x00000bde:    6a50        Pj      LDR      r0,[r2,#0x24]
        0x00000be0:    e78c        ..      B        0xafc ; mcu_to_fpga + 44
        0x00000be2:    6088        .`      STR      r0,[r1,#8]
        0x00000be4:    2014        .       MOVS     r0,#0x14
        0x00000be6:    e789        ..      B        0xafc ; mcu_to_fpga + 44
        0x00000be8:    6a97        .j      LDR      r7,[r2,#0x28]
        0x00000bea:    e9c5741e    ...t    STRD     r7,r4,[r5,#0x78]
        0x00000bee:    e003        ..      B        0xbf8 ; mcu_to_fpga + 296
        0x00000bf0:    67ac        .g      STR      r4,[r5,#0x78]
        0x00000bf2:    f8dc701c    ...p    LDR      r7,[r12,#0x1c]
        0x00000bf6:    67ef        .g      STR      r7,[r5,#0x7c]
        0x00000bf8:    600c        .`      STR      r4,[r1,#0]
        0x00000bfa:    604c        L`      STR      r4,[r1,#4]
        0x00000bfc:    e794        ..      B        0xb28 ; mcu_to_fpga + 88
        0x00000bfe:    e002        ..      B        0xc06 ; mcu_to_fpga + 310
        0x00000c00:    e008        ..      B        0xc14 ; mcu_to_fpga + 324
        0x00000c02:    e013        ..      B        0xc2c ; mcu_to_fpga + 348
        0x00000c04:    e021        !.      B        0xc4a ; mcu_to_fpga + 378
        0x00000c06:    67ac        .g      STR      r4,[r5,#0x78]
        0x00000c08:    67ec        .g      STR      r4,[r5,#0x7c]
        0x00000c0a:    600c        .`      STR      r4,[r1,#0]
        0x00000c0c:    604c        L`      STR      r4,[r1,#4]
        0x00000c0e:    6b97        .k      LDR      r7,[r2,#0x38]
        0x00000c10:    676f        og      STR      r7,[r5,#0x74]
        0x00000c12:    e78a        ..      B        0xb2a ; mcu_to_fpga + 90
        0x00000c14:    67ac        .g      STR      r4,[r5,#0x78]
        0x00000c16:    67ec        .g      STR      r4,[r5,#0x7c]
        0x00000c18:    6b17        .k      LDR      r7,[r2,#0x30]
        0x00000c1a:    087f        ..      LSRS     r7,r7,#1
        0x00000c1c:    e9c17400    ...t    STRD     r7,r4,[r1,#0]
        0x00000c20:    e782        ..      B        0xb28 ; mcu_to_fpga + 88
        0x00000c22:    e019        ..      B        0xc58 ; mcu_to_fpga + 392
        0x00000c24:    e01f        ..      B        0xc66 ; mcu_to_fpga + 406
        0x00000c26:    e025        %.      B        0xc74 ; mcu_to_fpga + 420
        0x00000c28:    e02f        /.      B        0xc8a ; mcu_to_fpga + 442
        0x00000c2a:    e036        6.      B        0xc9a ; mcu_to_fpga + 458
        0x00000c2c:    67ac        .g      STR      r4,[r5,#0x78]
        0x00000c2e:    67ec        .g      STR      r4,[r5,#0x7c]
        0x00000c30:    600c        .`      STR      r4,[r1,#0]
        0x00000c32:    604c        L`      STR      r4,[r1,#4]
        0x00000c34:    676c        lg      STR      r4,[r5,#0x74]
        0x00000c36:    f8dc7020    .. p    LDR      r7,[r12,#0x20]
        0x00000c3a:    b127        '.      CBZ      r7,0xc46 ; mcu_to_fpga + 374
        0x00000c3c:    628f        .b      STR      r7,[r1,#0x28]
        0x00000c3e:    e775        u.      B        0xb2c ; mcu_to_fpga + 92
        0x00000c40:    e034        4.      B        0xcac ; mcu_to_fpga + 476
        0x00000c42:    e03a        :.      B        0xcba ; mcu_to_fpga + 490
        0x00000c44:    e14e        N.      B        0xee4 ; mcu_to_fpga + 1044
        0x00000c46:    6288        .b      STR      r0,[r1,#0x28]
        0x00000c48:    e770        p.      B        0xb2c ; mcu_to_fpga + 92
        0x00000c4a:    f8dc8028    ..(.    LDR      r8,[r12,#0x28]
        0x00000c4e:    f8c1800c    ....    STR      r8,[r1,#0xc]
        0x00000c52:    f04f08d3    O...    MOV      r8,#0xd3
        0x00000c56:    e015        ..      B        0xc84 ; mcu_to_fpga + 436
        0x00000c58:    f8dc802c    ..,.    LDR      r8,[r12,#0x2c]
        0x00000c5c:    f8c1800c    ....    STR      r8,[r1,#0xc]
        0x00000c60:    f04f08d4    O...    MOV      r8,#0xd4
        0x00000c64:    e00e        ..      B        0xc84 ; mcu_to_fpga + 436
        0x00000c66:    f8dc8034    ..4.    LDR      r8,[r12,#0x34]
        0x00000c6a:    f8c1800c    ....    STR      r8,[r1,#0xc]
        0x00000c6e:    f04f08d5    O...    MOV      r8,#0xd5
        0x00000c72:    e007        ..      B        0xc84 ; mcu_to_fpga + 436
        0x00000c74:    f8dc8030    ..0.    LDR      r8,[r12,#0x30]
        0x00000c78:    ea4f0858    O.X.    LSR      r8,r8,#1
        0x00000c7c:    f8c1800c    ....    STR      r8,[r1,#0xc]
        0x00000c80:    f04f08d6    O...    MOV      r8,#0xd6
        0x00000c84:    f8c18018    ....    STR      r8,[r1,#0x18]
        0x00000c88:    e75b        [.      B        0xb42 ; mcu_to_fpga + 114
        0x00000c8a:    f8d28044    ..D.    LDR      r8,[r2,#0x44]
        0x00000c8e:    f8c18010    ....    STR      r8,[r1,#0x10]
        0x00000c92:    f04f08e1    O...    MOV      r8,#0xe1
        0x00000c96:    e006        ..      B        0xca6 ; mcu_to_fpga + 470
        0x00000c98:    e018        ..      B        0xccc ; mcu_to_fpga + 508
        0x00000c9a:    f8d28048    ..H.    LDR      r8,[r2,#0x48]
        0x00000c9e:    f8c18010    ....    STR      r8,[r1,#0x10]
        0x00000ca2:    f04f08e2    O...    MOV      r8,#0xe2
        0x00000ca6:    f8c1801c    ....    STR      r8,[r1,#0x1c]
        0x00000caa:    e754        T.      B        0xb56 ; mcu_to_fpga + 134
        0x00000cac:    f8d2c050    ..P.    LDR      r12,[r2,#0x50]
        0x00000cb0:    f8c1c014    ....    STR      r12,[r1,#0x14]
        0x00000cb4:    f04f0ce4    O...    MOV      r12,#0xe4
        0x00000cb8:    e005        ..      B        0xcc6 ; mcu_to_fpga + 502
        0x00000cba:    f8d2c054    ..T.    LDR      r12,[r2,#0x54]
        0x00000cbe:    f8c1c014    ....    STR      r12,[r1,#0x14]
        0x00000cc2:    f04f0ce5    O...    MOV      r12,#0xe5
        0x00000cc6:    f8c1c020    .. .    STR      r12,[r1,#0x20]
        0x00000cca:    e74d        M.      B        0xb68 ; mcu_to_fpga + 152
        0x00000ccc:    f8dbc008    ....    LDR      r12,[r11,#8]
        0x00000cd0:    45b4        .E      CMP      r12,r6
        0x00000cd2:    d001        ..      BEQ      0xcd8 ; mcu_to_fpga + 520
        0x00000cd4:    24cd        .$      MOVS     r4,#0xcd
        0x00000cd6:    e048        H.      B        0xd6a ; mcu_to_fpga + 666
        0x00000cd8:    f8df8198    ....    LDR      r8,[pc,#408] ; [0xe74] = 0x2000003c
        0x00000cdc:    f8db6004    ...`    LDR      r6,[r11,#4]
        0x00000ce0:    f1080880    ....    ADD      r8,r8,#0x80
        0x00000ce4:    f8d8c014    ....    LDR      r12,[r8,#0x14]
        0x00000ce8:    4566        fE      CMP      r6,r12
        0x00000cea:    d003        ..      BEQ      0xcf4 ; mcu_to_fpga + 548
        0x00000cec:    24c3        .$      MOVS     r4,#0xc3
        0x00000cee:    e02e        ..      B        0xd4e ; mcu_to_fpga + 638
        0x00000cf0:    6014        .`      STR      r4,[r2,#0]
        0x00000cf2:    e0e7        ..      B        0xec4 ; mcu_to_fpga + 1012
        0x00000cf4:    6fae        .o      LDR      r6,[r5,#0x78]
        0x00000cf6:    f8d8c00c    ....    LDR      r12,[r8,#0xc]
        0x00000cfa:    4566        fE      CMP      r6,r12
        0x00000cfc:    d001        ..      BEQ      0xd02 ; mcu_to_fpga + 562
        0x00000cfe:    24c4        .$      MOVS     r4,#0xc4
        0x00000d00:    e025        %.      B        0xd4e ; mcu_to_fpga + 638
        0x00000d02:    f8d86008    ...`    LDR      r6,[r8,#8]
        0x00000d06:    f8d5c07c    ..|.    LDR      r12,[r5,#0x7c]
        0x00000d0a:    4566        fE      CMP      r6,r12
        0x00000d0c:    d001        ..      BEQ      0xd12 ; mcu_to_fpga + 578
        0x00000d0e:    24c5        .$      MOVS     r4,#0xc5
        0x00000d10:    e02b        +.      B        0xd6a ; mcu_to_fpga + 666
        0x00000d12:    f8dec07c    ..|.    LDR      r12,[lr,#0x7c]
        0x00000d16:    f8de6018    ...`    LDR      r6,[lr,#0x18]
        0x00000d1a:    4566        fE      CMP      r6,r12
        0x00000d1c:    d001        ..      BEQ      0xd22 ; mcu_to_fpga + 594
        0x00000d1e:    24c6        .$      MOVS     r4,#0xc6
        0x00000d20:    e015        ..      B        0xd4e ; mcu_to_fpga + 638
        0x00000d22:    f8db6000    ...`    LDR      r6,[r11,#0]
        0x00000d26:    f8d8c010    ....    LDR      r12,[r8,#0x10]
        0x00000d2a:    4566        fE      CMP      r6,r12
        0x00000d2c:    d001        ..      BEQ      0xd32 ; mcu_to_fpga + 610
        0x00000d2e:    24c7        .$      MOVS     r4,#0xc7
        0x00000d30:    e00d        ..      B        0xd4e ; mcu_to_fpga + 638
        0x00000d32:    4e50        PN      LDR      r6,[pc,#320] ; [0xe74] = 0x2000003c
        0x00000d34:    f8d8c004    ....    LDR      r12,[r8,#4]
        0x00000d38:    6a36        6j      LDR      r6,[r6,#0x20]
        0x00000d3a:    4566        fE      CMP      r6,r12
        0x00000d3c:    d001        ..      BEQ      0xd42 ; mcu_to_fpga + 626
        0x00000d3e:    24c8        .$      MOVS     r4,#0xc8
        0x00000d40:    e005        ..      B        0xd4e ; mcu_to_fpga + 638
        0x00000d42:    6f6e        no      LDR      r6,[r5,#0x74]
        0x00000d44:    f8d8c018    ....    LDR      r12,[r8,#0x18]
        0x00000d48:    4566        fE      CMP      r6,r12
        0x00000d4a:    d005        ..      BEQ      0xd58 ; mcu_to_fpga + 648
        0x00000d4c:    24c9        .$      MOVS     r4,#0xc9
        0x00000d4e:    6014        .`      STR      r4,[r2,#0]
        0x00000d50:    b2f4        ..      UXTB     r4,r6
        0x00000d52:    6014        .`      STR      r4,[r2,#0]
        0x00000d54:    0a34        4.      LSRS     r4,r6,#8
        0x00000d56:    e7cb        ..      B        0xcf0 ; mcu_to_fpga + 544
        0x00000d58:    46c6        .F      MOV      lr,r8
        0x00000d5a:    f8dbc028    ..(.    LDR      r12,[r11,#0x28]
        0x00000d5e:    f8d88024    ..$.    LDR      r8,[r8,#0x24]
        0x00000d62:    465e        ^F      MOV      r6,r11
        0x00000d64:    45c4        .E      CMP      r12,r8
        0x00000d66:    d007        ..      BEQ      0xd78 ; mcu_to_fpga + 680
        0x00000d68:    24c1        .$      MOVS     r4,#0xc1
        0x00000d6a:    6014        .`      STR      r4,[r2,#0]
        0x00000d6c:    f00c04ff    ....    AND      r4,r12,#0xff
        0x00000d70:    6014        .`      STR      r4,[r2,#0]
        0x00000d72:    ea4f241c    O..$    LSR      r4,r12,#8
        0x00000d76:    e7bb        ..      B        0xcf0 ; mcu_to_fpga + 544
        0x00000d78:    f8dfc0f8    ....    LDR      r12,[pc,#248] ; [0xe74] = 0x2000003c
        0x00000d7c:    f8de8038    ..8.    LDR      r8,[lr,#0x38]
        0x00000d80:    f8dcc03c    ..<.    LDR      r12,[r12,#0x3c]
        0x00000d84:    45c4        .E      CMP      r12,r8
        0x00000d86:    d004        ..      BEQ      0xd92 ; mcu_to_fpga + 706
        0x00000d88:    24d2        .$      MOVS     r4,#0xd2
        0x00000d8a:    6014        .`      STR      r4,[r2,#0]
        0x00000d8c:    f8c2c000    ....    STR      r12,[r2,#0]
        0x00000d90:    e098        ..      B        0xec4 ; mcu_to_fpga + 1012
        0x00000d92:    46f0        .F      MOV      r8,lr
        0x00000d94:    b16f        o.      CBZ      r7,0xdb2 ; mcu_to_fpga + 738
        0x00000d96:    f8d8c044    ..D.    LDR      r12,[r8,#0x44]
        0x00000d9a:    4567        gE      CMP      r7,r12
        0x00000d9c:    d104        ..      BNE      0xda8 ; mcu_to_fpga + 728
        0x00000d9e:    68f7        .h      LDR      r7,[r6,#0xc]
        0x00000da0:    f8d8c040    ..@.    LDR      r12,[r8,#0x40]
        0x00000da4:    4567        gE      CMP      r7,r12
        0x00000da6:    d00a        ..      BEQ      0xdbe ; mcu_to_fpga + 750
        0x00000da8:    69b4        .i      LDR      r4,[r6,#0x18]
        0x00000daa:    6014        .`      STR      r4,[r2,#0]
        0x00000dac:    f8db400c    ...@    LDR      r4,[r11,#0xc]
        0x00000db0:    e041        A.      B        0xe36 ; mcu_to_fpga + 870
        0x00000db2:    f8d87044    ..Dp    LDR      r7,[r8,#0x44]
        0x00000db6:    b117        ..      CBZ      r7,0xdbe ; mcu_to_fpga + 750
        0x00000db8:    26d0        .&      MOVS     r6,#0xd0
        0x00000dba:    6016        .`      STR      r6,[r2,#0]
        0x00000dbc:    e798        ..      B        0xcf0 ; mcu_to_fpga + 544
        0x00000dbe:    f8dfe0b4    ....    LDR      lr,[pc,#180] ; [0xe74] = 0x2000003c
        0x00000dc2:    46c4        .F      MOV      r12,r8
        0x00000dc4:    f8d88048    ..H.    LDR      r8,[r8,#0x48]
        0x00000dc8:    f8de7040    ..@p    LDR      r7,[lr,#0x40]
        0x00000dcc:    4547        GE      CMP      r7,r8
        0x00000dce:    d001        ..      BEQ      0xdd4 ; mcu_to_fpga + 772
        0x00000dd0:    24e3        .$      MOVS     r4,#0xe3
        0x00000dd2:    e01d        ..      B        0xe10 ; mcu_to_fpga + 832
        0x00000dd4:    f1b90f00    ....    CMP      r9,#0
        0x00000dd8:    d00d        ..      BEQ      0xdf6 ; mcu_to_fpga + 806
        0x00000dda:    f8dc804c    ..L.    LDR      r8,[r12,#0x4c]
        0x00000dde:    45c1        .E      CMP      r9,r8
        0x00000de0:    d104        ..      BNE      0xdec ; mcu_to_fpga + 796
        0x00000de2:    6937        7i      LDR      r7,[r6,#0x10]
        0x00000de4:    f8dc8050    ..P.    LDR      r8,[r12,#0x50]
        0x00000de8:    4547        GE      CMP      r7,r8
        0x00000dea:    d009        ..      BEQ      0xe00 ; mcu_to_fpga + 816
        0x00000dec:    69f4        .i      LDR      r4,[r6,#0x1c]
        0x00000dee:    6014        .`      STR      r4,[r2,#0]
        0x00000df0:    f8db4010    ...@    LDR      r4,[r11,#0x10]
        0x00000df4:    e01f        ..      B        0xe36 ; mcu_to_fpga + 870
        0x00000df6:    f8dc704c    ..Lp    LDR      r7,[r12,#0x4c]
        0x00000dfa:    b10f        ..      CBZ      r7,0xe00 ; mcu_to_fpga + 816
        0x00000dfc:    24e0        .$      MOVS     r4,#0xe0
        0x00000dfe:    e05f        _.      B        0xec0 ; mcu_to_fpga + 1008
        0x00000e00:    f8de704c    ..Lp    LDR      r7,[lr,#0x4c]
        0x00000e04:    f8dc8058    ..X.    LDR      r8,[r12,#0x58]
        0x00000e08:    46f1        .F      MOV      r9,lr
        0x00000e0a:    4547        GE      CMP      r7,r8
        0x00000e0c:    d003        ..      BEQ      0xe16 ; mcu_to_fpga + 838
        0x00000e0e:    24e6        .$      MOVS     r4,#0xe6
        0x00000e10:    6014        .`      STR      r4,[r2,#0]
        0x00000e12:    6017        .`      STR      r7,[r2,#0]
        0x00000e14:    e056        V.      B        0xec4 ; mcu_to_fpga + 1012
        0x00000e16:    f1ba0f00    ....    CMP      r10,#0
        0x00000e1a:    d010        ..      BEQ      0xe3e ; mcu_to_fpga + 878
        0x00000e1c:    f8dc805c    ..\.    LDR      r8,[r12,#0x5c]
        0x00000e20:    45c2        .E      CMP      r10,r8
        0x00000e22:    d104        ..      BNE      0xe2e ; mcu_to_fpga + 862
        0x00000e24:    6977        wi      LDR      r7,[r6,#0x14]
        0x00000e26:    f8dc8060    ..`.    LDR      r8,[r12,#0x60]
        0x00000e2a:    4547        GE      CMP      r7,r8
        0x00000e2c:    d00e        ..      BEQ      0xe4c ; mcu_to_fpga + 892
        0x00000e2e:    6a34        4j      LDR      r4,[r6,#0x20]
        0x00000e30:    6014        .`      STR      r4,[r2,#0]
        0x00000e32:    f8db4014    ...@    LDR      r4,[r11,#0x14]
        0x00000e36:    b2e6        ..      UXTB     r6,r4
        0x00000e38:    6016        .`      STR      r6,[r2,#0]
        0x00000e3a:    0a24        $.      LSRS     r4,r4,#8
        0x00000e3c:    e758        X.      B        0xcf0 ; mcu_to_fpga + 544
        0x00000e3e:    f8dc705c    ..\p    LDR      r7,[r12,#0x5c]
        0x00000e42:    b11f        ..      CBZ      r7,0xe4c ; mcu_to_fpga + 892
        0x00000e44:    24e0        .$      MOVS     r4,#0xe0
        0x00000e46:    6014        .`      STR      r4,[r2,#0]
        0x00000e48:    2404        .$      MOVS     r4,#4
        0x00000e4a:    e751        Q.      B        0xcf0 ; mcu_to_fpga + 544
        0x00000e4c:    f8dcc064    ..d.    LDR      r12,[r12,#0x64]
        0x00000e50:    f8d97058    ..Xp    LDR      r7,[r9,#0x58]
        0x00000e54:    45bc        .E      CMP      r12,r7
        0x00000e56:    d005        ..      BEQ      0xe64 ; mcu_to_fpga + 916
        0x00000e58:    24e7        .$      MOVS     r4,#0xe7
        0x00000e5a:    6014        .`      STR      r4,[r2,#0]
        0x00000e5c:    b2fc        ..      UXTB     r4,r7
        0x00000e5e:    6014        .`      STR      r4,[r2,#0]
        0x00000e60:    0a3c        <.      LSRS     r4,r7,#8
        0x00000e62:    e745        E.      B        0xcf0 ; mcu_to_fpga + 544
        0x00000e64:    e9d57c15    ...|    LDRD     r7,r12,[r5,#0x54]
        0x00000e68:    45bc        .E      CMP      r12,r7
        0x00000e6a:    d00b        ..      BEQ      0xe84 ; mcu_to_fpga + 948
        0x00000e6c:    24f0        .$      MOVS     r4,#0xf0
        0x00000e6e:    e7cf        ..      B        0xe10 ; mcu_to_fpga + 832
    $d
        0x00000e70:    20000764    d..     DCD    536872804
        0x00000e74:    2000003c    <..     DCD    536870972
        0x00000e78:    20004f1c    .O.     DCD    536891164
        0x00000e7c:    40070000    ...@    DCD    1074200576
        0x00000e80:    40004898    .H.@    DCD    1073760408
    $t
        0x00000e84:    4fac        .O      LDR      r7,[pc,#688] ; [0x1138] = 0x2000003c
        0x00000e86:    f8d58044    ..D.    LDR      r8,[r5,#0x44]
        0x00000e8a:    f8d5c048    ..H.    LDR      r12,[r5,#0x48]
        0x00000e8e:    793f        ?y      LDRB     r7,[r7,#4]
        0x00000e90:    46c1        .F      MOV      r9,r8
        0x00000e92:    45e0        .E      CMP      r8,r12
        0x00000e94:    d101        ..      BNE      0xe9a ; mcu_to_fpga + 970
        0x00000e96:    4567        gE      CMP      r7,r12
        0x00000e98:    d02d        -.      BEQ      0xef6 ; mcu_to_fpga + 1062
        0x00000e9a:    ea590807    Y...    ORRS     r8,r9,r7
        0x00000e9e:    f04f0acf    O...    MOV      r10,#0xcf
        0x00000ea2:    d102        ..      BNE      0xeaa ; mcu_to_fpga + 986
        0x00000ea4:    f1bc0f01    ....    CMP      r12,#1
        0x00000ea8:    d009        ..      BEQ      0xebe ; mcu_to_fpga + 1006
        0x00000eaa:    ea5f0809    _...    MOVS     r8,r9
        0x00000eae:    d00c        ..      BEQ      0xeca ; mcu_to_fpga + 1018
        0x00000eb0:    f1b90f01    ....    CMP      r9,#1
        0x00000eb4:    d116        ..      BNE      0xee4 ; mcu_to_fpga + 1044
        0x00000eb6:    f1bc0f00    ....    CMP      r12,#0
        0x00000eba:    d014        ..      BEQ      0xee6 ; mcu_to_fpga + 1046
        0x00000ebc:    e01f        ..      B        0xefe ; mcu_to_fpga + 1070
        0x00000ebe:    4654        TF      MOV      r4,r10
        0x00000ec0:    6014        .`      STR      r4,[r2,#0]
        0x00000ec2:    6010        .`      STR      r0,[r2,#0]
        0x00000ec4:    6013        .`      STR      r3,[r2,#0]
        0x00000ec6:    6008        .`      STR      r0,[r1,#0]
        0x00000ec8:    e016        ..      B        0xef8 ; mcu_to_fpga + 1064
        0x00000eca:    2f01        ./      CMP      r7,#1
        0x00000ecc:    d10a        ..      BNE      0xee4 ; mcu_to_fpga + 1044
        0x00000ece:    6af7        .j      LDR      r7,[r6,#0x2c]
        0x00000ed0:    2f01        ./      CMP      r7,#1
        0x00000ed2:    d107        ..      BNE      0xee4 ; mcu_to_fpga + 1044
        0x00000ed4:    f8c2a000    ....    STR      r10,[r2,#0]
        0x00000ed8:    6014        .`      STR      r4,[r2,#0]
        0x00000eda:    6013        .`      STR      r3,[r2,#0]
        0x00000edc:    64ac        .d      STR      r4,[r5,#0x48]
        0x00000ede:    f8cb402c    ..,@    STR      r4,[r11,#0x2c]
        0x00000ee2:    6008        .`      STR      r0,[r1,#0]
        0x00000ee4:    e5f2        ..      B        0xacc ; fpga_to_mcu + 566
        0x00000ee6:    f8c2a000    ....    STR      r10,[r2,#0]
        0x00000eea:    6014        .`      STR      r4,[r2,#0]
        0x00000eec:    6013        .`      STR      r3,[r2,#0]
        0x00000eee:    f8cb402c    ..,@    STR      r4,[r11,#0x2c]
        0x00000ef2:    6008        .`      STR      r0,[r1,#0]
        0x00000ef4:    e003        ..      B        0xefe ; mcu_to_fpga + 1070
        0x00000ef6:    600c        .`      STR      r4,[r1,#0]
        0x00000ef8:    6c69        il      LDR      r1,[r5,#0x44]
        0x00000efa:    2901        .)      CMP      r1,#1
        0x00000efc:    d1f2        ..      BNE      0xee4 ; mcu_to_fpga + 1044
        0x00000efe:    f8cb002c    ..,.    STR      r0,[r11,#0x2c]
        0x00000f02:    e5e3        ..      B        0xacc ; fpga_to_mcu + 566
    UART0_TEST_HANDLE
        0x00000f04:    e92d41f0    -..A    PUSH     {r4-r8,lr}
        0x00000f08:    4d8c        .M      LDR      r5,[pc,#560] ; [0x113c] = 0x40070000
        0x00000f0a:    69e8        .i      LDR      r0,[r5,#0x1c]
        0x00000f0c:    05c0        ..      LSLS     r0,r0,#23
        0x00000f0e:    d520         .      BPL      0xf52 ; UART0_TEST_HANDLE + 78
        0x00000f10:    4c89        .L      LDR      r4,[pc,#548] ; [0x1138] = 0x2000003c
        0x00000f12:    2200        ."      MOVS     r2,#0
        0x00000f14:    4610        .F      MOV      r0,r2
        0x00000f16:    8122        ".      STRH     r2,[r4,#8]
        0x00000f18:    4e89        .N      LDR      r6,[pc,#548] ; [0x1140] = 0x20004f1c
        0x00000f1a:    88e1        ..      LDRH     r1,[r4,#6]
        0x00000f1c:    e001        ..      B        0xf22 ; UART0_TEST_HANDLE + 30
        0x00000f1e:    5432        2T      STRB     r2,[r6,r0]
        0x00000f20:    1c40        @.      ADDS     r0,r0,#1
        0x00000f22:    4288        .B      CMP      r0,r1
        0x00000f24:    dbfb        ..      BLT      0xf1e ; UART0_TEST_HANDLE + 26
        0x00000f26:    4f87        .O      LDR      r7,[pc,#540] ; [0x1144] = 0x40050100
        0x00000f28:    69a8        .i      LDR      r0,[r5,#0x18]
        0x00000f2a:    0440        @.      LSLS     r0,r0,#17
        0x00000f2c:    d40c        ..      BMI      0xf48 ; UART0_TEST_HANDLE + 68
        0x00000f2e:    2105        .!      MOVS     r1,#5
        0x00000f30:    4638        8F      MOV      r0,r7
        0x00000f32:    f001fc4d    ..M.    BL       TIMER_Delay ; 0x27d0
        0x00000f36:    6829        )h      LDR      r1,[r5,#0]
        0x00000f38:    6ee0        .n      LDR      r0,[r4,#0x6c]
        0x00000f3a:    1c40        @.      ADDS     r0,r0,#1
        0x00000f3c:    66e0        .f      STR      r0,[r4,#0x6c]
        0x00000f3e:    8920         .      LDRH     r0,[r4,#8]
        0x00000f40:    5431        1T      STRB     r1,[r6,r0]
        0x00000f42:    1c40        @.      ADDS     r0,r0,#1
        0x00000f44:    8120         .      STRH     r0,[r4,#8]
        0x00000f46:    e7ef        ..      B        0xf28 ; UART0_TEST_HANDLE + 36
        0x00000f48:    f7fffca5    ....    BL       fpga_to_mcu ; 0x896
        0x00000f4c:    e8bd41f0    ...A    POP      {r4-r8,lr}
        0x00000f50:    e5be        ..      B        mcu_to_fpga ; 0xad0
        0x00000f52:    e8bd81f0    ....    POP      {r4-r8,pc}
    UART1_TEST_HANDLE
        0x00000f56:    e92d47f0    -..G    PUSH     {r4-r10,lr}
        0x00000f5a:    4d7b        {M      LDR      r5,[pc,#492] ; [0x1148] = 0x40071000
        0x00000f5c:    69e8        .i      LDR      r0,[r5,#0x1c]
        0x00000f5e:    05c0        ..      LSLS     r0,r0,#23
        0x00000f60:    d531        1.      BPL      0xfc6 ; UART1_TEST_HANDLE + 112
        0x00000f62:    4f75        uO      LDR      r7,[pc,#468] ; [0x1138] = 0x2000003c
        0x00000f64:    2100        .!      MOVS     r1,#0
        0x00000f66:    f50772da    ...r    ADD      r2,r7,#0x1b4
        0x00000f6a:    7039        9p      STRB     r1,[r7,#0]
        0x00000f6c:    f1a20434    ..4.    SUB      r4,r2,#0x34
        0x00000f70:    60f9        .`      STR      r1,[r7,#0xc]
        0x00000f72:    68f8        .h      LDR      r0,[r7,#0xc]
        0x00000f74:    5411        .T      STRB     r1,[r2,r0]
        0x00000f76:    1c40        @.      ADDS     r0,r0,#1
        0x00000f78:    60f8        .`      STR      r0,[r7,#0xc]
        0x00000f7a:    2805        .(      CMP      r0,#5
        0x00000f7c:    dbf9        ..      BLT      0xf72 ; UART1_TEST_HANDLE + 28
        0x00000f7e:    4e71        qN      LDR      r6,[pc,#452] ; [0x1144] = 0x40050100
        0x00000f80:    4691        .F      MOV      r9,r2
        0x00000f82:    4688        .F      MOV      r8,r1
        0x00000f84:    69a8        .i      LDR      r0,[r5,#0x18]
        0x00000f86:    0440        @.      LSLS     r0,r0,#17
        0x00000f88:    d419        ..      BMI      0xfbe ; UART1_TEST_HANDLE + 104
        0x00000f8a:    6828        (h      LDR      r0,[r5,#0]
        0x00000f8c:    b2c1        ..      UXTB     r1,r0
        0x00000f8e:    7838        8x      LDRB     r0,[r7,#0]
        0x00000f90:    2805        .(      CMP      r0,#5
        0x00000f92:    d201        ..      BCS      0xf98 ; UART1_TEST_HANDLE + 66
        0x00000f94:    f8091000    ....    STRB     r1,[r9,r0]
        0x00000f98:    1c40        @.      ADDS     r0,r0,#1
        0x00000f9a:    7038        8p      STRB     r0,[r7,#0]
        0x00000f9c:    e006        ..      B        0xfac ; UART1_TEST_HANDLE + 86
        0x00000f9e:    211e        .!      MOVS     r1,#0x1e
        0x00000fa0:    4630        0F      MOV      r0,r6
        0x00000fa2:    f001fc15    ....    BL       TIMER_Delay ; 0x27d0
        0x00000fa6:    6b20         k      LDR      r0,[r4,#0x30]
        0x00000fa8:    1c40        @.      ADDS     r0,r0,#1
        0x00000faa:    6320         c      STR      r0,[r4,#0x30]
        0x00000fac:    69a8        .i      LDR      r0,[r5,#0x18]
        0x00000fae:    0440        @.      LSLS     r0,r0,#17
        0x00000fb0:    d502        ..      BPL      0xfb8 ; UART1_TEST_HANDLE + 98
        0x00000fb2:    6b20         k      LDR      r0,[r4,#0x30]
        0x00000fb4:    2805        .(      CMP      r0,#5
        0x00000fb6:    dbf2        ..      BLT      0xf9e ; UART1_TEST_HANDLE + 72
        0x00000fb8:    f8c48030    ..0.    STR      r8,[r4,#0x30]
        0x00000fbc:    e7e2        ..      B        0xf84 ; UART1_TEST_HANDLE + 46
        0x00000fbe:    e8bd47f0    ...G    POP      {r4-r10,lr}
        0x00000fc2:    f000beb8    ....    B.W      display_to_mcu ; 0x1d36
        0x00000fc6:    e8bd87f0    ....    POP      {r4-r10,pc}
    UART1_interrrupt
        0x00000fca:    485f        _H      LDR      r0,[pc,#380] ; [0x1148] = 0x40071000
        0x00000fcc:    b510        ..      PUSH     {r4,lr}
        0x00000fce:    6901        .i      LDR      r1,[r0,#0x10]
        0x00000fd0:    f4417100    A..q    ORR      r1,r1,#0x200
        0x00000fd4:    6101        .a      STR      r1,[r0,#0x10]
        0x00000fd6:    6941        Ai      LDR      r1,[r0,#0x14]
        0x00000fd8:    f4417180    A..q    ORR      r1,r1,#0x100
        0x00000fdc:    6141        Aa      STR      r1,[r0,#0x14]
        0x00000fde:    6881        .h      LDR      r1,[r0,#8]
        0x00000fe0:    f4212170    !.p!    BIC      r1,r1,#0xf0000
        0x00000fe4:    f4413140    A.@1    ORR      r1,r1,#0x30000
        0x00000fe8:    6081        .`      STR      r1,[r0,#8]
        0x00000fea:    6841        Ah      LDR      r1,[r0,#4]
        0x00000fec:    f0410115    A...    ORR      r1,r1,#0x15
        0x00000ff0:    6041        A`      STR      r1,[r0,#4]
        0x00000ff2:    21ff        .!      MOVS     r1,#0xff
        0x00000ff4:    f001fb68    ..h.    BL       UART_SetTimeoutCnt ; 0x26c8
        0x00000ff8:    e8bd4010    ...@    POP      {r4,lr}
        0x00000ffc:    2025        %       MOVS     r0,#0x25
        0x00000ffe:    f000b890    ....    B.W      NVIC_EnableIRQ ; 0x1122
    UART0_interrrupt
        0x00001002:    484e        NH      LDR      r0,[pc,#312] ; [0x113c] = 0x40070000
        0x00001004:    b510        ..      PUSH     {r4,lr}
        0x00001006:    6901        .i      LDR      r1,[r0,#0x10]
        0x00001008:    f4417100    A..q    ORR      r1,r1,#0x200
        0x0000100c:    6101        .a      STR      r1,[r0,#0x10]
        0x0000100e:    6941        Ai      LDR      r1,[r0,#0x14]
        0x00001010:    f4417180    A..q    ORR      r1,r1,#0x100
        0x00001014:    6141        Aa      STR      r1,[r0,#0x14]
        0x00001016:    6881        .h      LDR      r1,[r0,#8]
        0x00001018:    f4212170    !.p!    BIC      r1,r1,#0xf0000
        0x0000101c:    f4413140    A.@1    ORR      r1,r1,#0x30000
        0x00001020:    6081        .`      STR      r1,[r0,#8]
        0x00001022:    6841        Ah      LDR      r1,[r0,#4]
        0x00001024:    f0410115    A...    ORR      r1,r1,#0x15
        0x00001028:    6041        A`      STR      r1,[r0,#4]
        0x0000102a:    21ff        .!      MOVS     r1,#0xff
        0x0000102c:    f001fb4c    ..L.    BL       UART_SetTimeoutCnt ; 0x26c8
        0x00001030:    e8bd4010    ...@    POP      {r4,lr}
        0x00001034:    2024        $       MOVS     r0,#0x24
        0x00001036:    f000b874    ..t.    B.W      NVIC_EnableIRQ ; 0x1122
    SYS_Init
        0x0000103a:    b510        ..      PUSH     {r4,lr}
        0x0000103c:    2159        Y!      MOVS     r1,#0x59
        0x0000103e:    078c        ..      LSLS     r4,r1,#30
        0x00001040:    2016        .       MOVS     r0,#0x16
        0x00001042:    2288        ."      MOVS     r2,#0x88
        0x00001044:    f8c41100    ....    STR      r1,[r4,#0x100]
        0x00001048:    f8c40100    ....    STR      r0,[r4,#0x100]
        0x0000104c:    f8c42100    ...!    STR      r2,[r4,#0x100]
        0x00001050:    f8d43100    ...1    LDR      r3,[r4,#0x100]
        0x00001054:    2b00        .+      CMP      r3,#0
        0x00001056:    d0f5        ..      BEQ      0x1044 ; SYS_Init + 10
        0x00001058:    f04f2040    O.@     MOV      r0,#0x40004000
        0x0000105c:    f8d01140    ..@.    LDR      r1,[r0,#0x140]
        0x00001060:    f02101f0    !...    BIC      r1,r1,#0xf0
        0x00001064:    f8c01140    ..@.    STR      r1,[r0,#0x140]
        0x00001068:    f8d40200    ....    LDR      r0,[r4,#0x200]
        0x0000106c:    f0400001    @...    ORR      r0,r0,#1
        0x00001070:    f8c40200    ....    STR      r0,[r4,#0x200]
        0x00001074:    2001        .       MOVS     r0,#1
        0x00001076:    f001f921    ..!.    BL       CLK_WaitClockReady ; 0x22bc
        0x0000107a:    4834        4H      LDR      r0,[pc,#208] ; [0x114c] = 0xb71b000
        0x0000107c:    f001fa28    ..(.    BL       CLK_SetCoreClock ; 0x24d0
        0x00001080:    2011        .       MOVS     r0,#0x11
        0x00001082:    f8c40234    ..4.    STR      r0,[r4,#0x234]
        0x00001086:    f8d40208    ....    LDR      r0,[r4,#0x208]
        0x0000108a:    f4403080    @..0    ORR      r0,r0,#0x10000
        0x0000108e:    f8c40208    ....    STR      r0,[r4,#0x208]
        0x00001092:    f8d40208    ....    LDR      r0,[r4,#0x208]
        0x00001096:    f4403000    @..0    ORR      r0,r0,#0x20000
        0x0000109a:    f8c40208    ....    STR      r0,[r4,#0x208]
        0x0000109e:    f8d40214    ....    LDR      r0,[r4,#0x214]
        0x000010a2:    f0207040     .@p    BIC      r0,r0,#0x3000000
        0x000010a6:    f8c40214    ....    STR      r0,[r4,#0x214]
        0x000010aa:    f8d40214    ....    LDR      r0,[r4,#0x214]
        0x000010ae:    f0206040     .@`    BIC      r0,r0,#0xc000000
        0x000010b2:    f8c40214    ....    STR      r0,[r4,#0x214]
        0x000010b6:    f7fff8b7    ....    BL       SystemCoreClockUpdate ; 0x228
        0x000010ba:    6b20         k      LDR      r0,[r4,#0x30]
        0x000010bc:    f020407f     ..@    BIC      r0,r0,#0xff000000
        0x000010c0:    6320         c      STR      r0,[r4,#0x30]
        0x000010c2:    6b20         k      LDR      r0,[r4,#0x30]
        0x000010c4:    f04040ee    @..@    ORR      r0,r0,#0x77000000
        0x000010c8:    6320         c      STR      r0,[r4,#0x30]
        0x000010ca:    6b20         k      LDR      r0,[r4,#0x30]
        0x000010cc:    f36f000f    o...    BFC      r0,#0,#16
        0x000010d0:    6320         c      STR      r0,[r4,#0x30]
        0x000010d2:    6b20         k      LDR      r0,[r4,#0x30]
        0x000010d4:    f6480188    H...    MOV      r1,#0x8888
        0x000010d8:    4308        .C      ORRS     r0,r0,r1
        0x000010da:    6320         c      STR      r0,[r4,#0x30]
        0x000010dc:    2000        .       MOVS     r0,#0
        0x000010de:    f8c40100    ....    STR      r0,[r4,#0x100]
        0x000010e2:    4c1b        .L      LDR      r4,[pc,#108] ; [0x1150] = 0x5e800002
        0x000010e4:    4620         F      MOV      r0,r4
        0x000010e6:    f001f87b    ..{.    BL       CLK_EnableModuleClock ; 0x21e0
        0x000010ea:    2200        ."      MOVS     r2,#0
        0x000010ec:    4611        .F      MOV      r1,r2
        0x000010ee:    4620         F      MOV      r0,r4
        0x000010f0:    f001f830    ..0.    BL       CLK_SetModuleClock ; 0x2154
        0x000010f4:    4c17        .L      LDR      r4,[pc,#92] ; [0x1154] = 0x5ec00003
        0x000010f6:    4620         F      MOV      r0,r4
        0x000010f8:    f001f872    ..r.    BL       CLK_EnableModuleClock ; 0x21e0
        0x000010fc:    4620         F      MOV      r0,r4
        0x000010fe:    2200        ."      MOVS     r2,#0
        0x00001100:    e8bd4010    ...@    POP      {r4,lr}
        0x00001104:    4611        .F      MOV      r1,r2
        0x00001106:    f001b825    ..%.    B.W      CLK_SetModuleClock ; 0x2154
    UART0_Init
        0x0000110a:    f44f31e1    O..1    MOV      r1,#0x1c200
        0x0000110e:    480b        .H      LDR      r0,[pc,#44] ; [0x113c] = 0x40070000
        0x00001110:    f001ba3c    ..<.    B.W      UART_Open ; 0x258c
    UART1_Init
        0x00001114:    f44f31e1    O..1    MOV      r1,#0x1c200
        0x00001118:    480b        .H      LDR      r0,[pc,#44] ; [0x1148] = 0x40071000
        0x0000111a:    f001ba37    ..7.    B.W      UART_Open ; 0x258c
    UART1_IRQHandler
        0x0000111e:    e71a        ..      B        UART1_TEST_HANDLE ; 0xf56
    UART0_IRQHandler
        0x00001120:    e6f0        ..      B        UART0_TEST_HANDLE ; 0xf04
    NVIC_EnableIRQ
        0x00001122:    f000021f    ....    AND      r2,r0,#0x1f
        0x00001126:    2101        .!      MOVS     r1,#1
        0x00001128:    4091        .@      LSLS     r1,r1,r2
        0x0000112a:    0940        @.      LSRS     r0,r0,#5
        0x0000112c:    0080        ..      LSLS     r0,r0,#2
        0x0000112e:    f10020e0    ...     ADD      r0,r0,#0xe000e000
        0x00001132:    f8c01100    ....    STR      r1,[r0,#0x100]
        0x00001136:    4770        pG      BX       lr
    $d
        0x00001138:    2000003c    <..     DCD    536870972
        0x0000113c:    40070000    ...@    DCD    1074200576
        0x00001140:    20004f1c    .O.     DCD    536891164
        0x00001144:    40050100    ...@    DCD    1074069760
        0x00001148:    40071000    ...@    DCD    1074204672
        0x0000114c:    0b71b000    ..q.    DCD    192000000
        0x00001150:    5e800002    ...^    DCD    1585446914
        0x00001154:    5ec00003    ...^    DCD    1589641219
    $t
    .text
    binary_to_bcd_array
        0x00001158:    f2427110    B..q    MOV      r1,#0x2710
        0x0000115c:    fb90f2f1    ....    SDIV     r2,r0,r1
        0x00001160:    210a        .!      MOVS     r1,#0xa
        0x00001162:    fb92f3f1    ....    SDIV     r3,r2,r1
        0x00001166:    fb012313    ...#    MLS      r3,r1,r3,r2
        0x0000116a:    4aff        .J      LDR      r2,[pc,#1020] ; [0x1568] = 0x20000208
        0x0000116c:    b510        ..      PUSH     {r4,lr}
        0x0000116e:    3330        03      ADDS     r3,r3,#0x30
        0x00001170:    7013        .p      STRB     r3,[r2,#0]
        0x00001172:    f44f737a    O.zs    MOV      r3,#0x3e8
        0x00001176:    fb90f3f3    ....    SDIV     r3,r0,r3
        0x0000117a:    fb93f4f1    ....    SDIV     r4,r3,r1
        0x0000117e:    fb013314    ...3    MLS      r3,r1,r4,r3
        0x00001182:    3330        03      ADDS     r3,r3,#0x30
        0x00001184:    7053        Sp      STRB     r3,[r2,#1]
        0x00001186:    2364        d#      MOVS     r3,#0x64
        0x00001188:    fb90f3f3    ....    SDIV     r3,r0,r3
        0x0000118c:    fb93f4f1    ....    SDIV     r4,r3,r1
        0x00001190:    fb013314    ...3    MLS      r3,r1,r4,r3
        0x00001194:    3330        03      ADDS     r3,r3,#0x30
        0x00001196:    7093        .p      STRB     r3,[r2,#2]
        0x00001198:    fb90f3f1    ....    SDIV     r3,r0,r1
        0x0000119c:    fb93f4f1    ....    SDIV     r4,r3,r1
        0x000011a0:    fb013314    ...3    MLS      r3,r1,r4,r3
        0x000011a4:    3330        03      ADDS     r3,r3,#0x30
        0x000011a6:    70d3        .p      STRB     r3,[r2,#3]
        0x000011a8:    fb90f3f1    ....    SDIV     r3,r0,r1
        0x000011ac:    fb010013    ....    MLS      r0,r1,r3,r0
        0x000011b0:    3030        00      ADDS     r0,r0,#0x30
        0x000011b2:    7110        .q      STRB     r0,[r2,#4]
        0x000011b4:    bd10        ..      POP      {r4,pc}
    print_page_lock_freq
        0x000011b6:    2211        ."      MOVS     r2,#0x11
        0x000011b8:    49ec        .I      LDR      r1,[pc,#944] ; [0x156c] = 0x20000433
        0x000011ba:    48ed        .H      LDR      r0,[pc,#948] ; [0x1570] = 0x40071000
        0x000011bc:    f001ba8e    ....    B.W      UART_Write ; 0x26dc
    print_page_overload
        0x000011c0:    49ea        .I      LDR      r1,[pc,#936] ; [0x156c] = 0x20000433
        0x000011c2:    2210        ."      MOVS     r2,#0x10
        0x000011c4:    31db        .1      ADDS     r1,r1,#0xdb
        0x000011c6:    48ea        .H      LDR      r0,[pc,#936] ; [0x1570] = 0x40071000
        0x000011c8:    f001ba88    ....    B.W      UART_Write ; 0x26dc
    print_page_timeout
        0x000011cc:    49e7        .I      LDR      r1,[pc,#924] ; [0x156c] = 0x20000433
        0x000011ce:    220f        ."      MOVS     r2,#0xf
        0x000011d0:    31eb        .1      ADDS     r1,r1,#0xeb
        0x000011d2:    48e7        .H      LDR      r0,[pc,#924] ; [0x1570] = 0x40071000
        0x000011d4:    f001ba82    ....    B.W      UART_Write ; 0x26dc
    print_page_broken_transducer
        0x000011d8:    49e4        .I      LDR      r1,[pc,#912] ; [0x156c] = 0x20000433
        0x000011da:    220e        ."      MOVS     r2,#0xe
        0x000011dc:    31fa        .1      ADDS     r1,r1,#0xfa
        0x000011de:    48e4        .H      LDR      r0,[pc,#912] ; [0x1570] = 0x40071000
        0x000011e0:    f001ba7c    ..|.    B.W      UART_Write ; 0x26dc
    print_page_setting_1
        0x000011e4:    b570        p.      PUSH     {r4-r6,lr}
        0x000011e6:    f7fff9a8    ....    BL       read_mode_set ; 0x53a
        0x000011ea:    250a        .%      MOVS     r5,#0xa
        0x000011ec:    4ce0        .L      LDR      r4,[pc,#896] ; [0x1570] = 0x40071000
        0x000011ee:    2802        .(      CMP      r0,#2
        0x000011f0:    d034        4.      BEQ      0x125c ; print_page_setting_1 + 120
        0x000011f2:    f7fff9a2    ....    BL       read_mode_set ; 0x53a
        0x000011f6:    2803        .(      CMP      r0,#3
        0x000011f8:    d03f        ?.      BEQ      0x127a ; print_page_setting_1 + 150
        0x000011fa:    f7fff99e    ....    BL       read_mode_set ; 0x53a
        0x000011fe:    2804        .(      CMP      r0,#4
        0x00001200:    d049        I.      BEQ      0x1296 ; print_page_setting_1 + 178
        0x00001202:    f7fff99a    ....    BL       read_mode_set ; 0x53a
        0x00001206:    2805        .(      CMP      r0,#5
        0x00001208:    d058        X.      BEQ      0x12bc ; print_page_setting_1 + 216
        0x0000120a:    f7fff996    ....    BL       read_mode_set ; 0x53a
        0x0000120e:    2806        .(      CMP      r0,#6
        0x00001210:    f04f023c    O.<.    MOV      r2,#0x3c
        0x00001214:    d061        a.      BEQ      0x12da ; print_page_setting_1 + 246
        0x00001216:    49d4        .I      LDR      r1,[pc,#848] ; [0x1568] = 0x20000208
        0x00001218:    4620         F      MOV      r0,r4
        0x0000121a:    3176        v1      ADDS     r1,r1,#0x76
        0x0000121c:    f001fa5e    ..^.    BL       UART_Write ; 0x26dc
        0x00001220:    49d2        .I      LDR      r1,[pc,#840] ; [0x156c] = 0x20000433
        0x00001222:    220a        ."      MOVS     r2,#0xa
        0x00001224:    3936        69      SUBS     r1,r1,#0x36
        0x00001226:    4620         F      MOV      r0,r4
        0x00001228:    f001fa58    ..X.    BL       UART_Write ; 0x26dc
        0x0000122c:    f7fff993    ....    BL       read_time_set_stage_one_display ; 0x556
        0x00001230:    fbb0f0f5    ....    UDIV     r0,r0,r5
        0x00001234:    f7ffff90    ....    BL       binary_to_bcd_array ; 0x1158
        0x00001238:    2205        ."      MOVS     r2,#5
        0x0000123a:    49cb        .I      LDR      r1,[pc,#812] ; [0x1568] = 0x20000208
        0x0000123c:    4620         F      MOV      r0,r4
        0x0000123e:    f001fa4d    ..M.    BL       UART_Write ; 0x26dc
        0x00001242:    2203        ."      MOVS     r2,#3
        0x00001244:    49cb        .I      LDR      r1,[pc,#812] ; [0x1574] = 0x2000002c
        0x00001246:    4620         F      MOV      r0,r4
        0x00001248:    f001fa48    ..H.    BL       UART_Write ; 0x26dc
        0x0000124c:    f7fff9d8    ....    BL       read_stage2_mode_address_set ; 0x600
        0x00001250:    f04f0239    O.9.    MOV      r2,#0x39
        0x00001254:    b388        ..      CBZ      r0,0x12ba ; print_page_setting_1 + 214
        0x00001256:    49c5        .I      LDR      r1,[pc,#788] ; [0x156c] = 0x20000433
        0x00001258:    3111        .1      ADDS     r1,r1,#0x11
        0x0000125a:    e04e        N.      B        0x12fa ; print_page_setting_1 + 278
        0x0000125c:    49c2        .I      LDR      r1,[pc,#776] ; [0x1568] = 0x20000208
        0x0000125e:    223d        ="      MOVS     r2,#0x3d
        0x00001260:    31ee        .1      ADDS     r1,r1,#0xee
        0x00001262:    4620         F      MOV      r0,r4
        0x00001264:    f001fa3a    ..:.    BL       UART_Write ; 0x26dc
        0x00001268:    49c0        .I      LDR      r1,[pc,#768] ; [0x156c] = 0x20000433
        0x0000126a:    220a        ."      MOVS     r2,#0xa
        0x0000126c:    3936        69      SUBS     r1,r1,#0x36
        0x0000126e:    4620         F      MOV      r0,r4
        0x00001270:    f001fa34    ..4.    BL       UART_Write ; 0x26dc
        0x00001274:    f7fff968    ..h.    BL       read_distance_relative_set_display ; 0x548
        0x00001278:    e7dc        ..      B        0x1234 ; print_page_setting_1 + 80
        0x0000127a:    223d        ="      MOVS     r2,#0x3d
        0x0000127c:    49be        .I      LDR      r1,[pc,#760] ; [0x1578] = 0x20000333
        0x0000127e:    4620         F      MOV      r0,r4
        0x00001280:    f001fa2c    ..,.    BL       UART_Write ; 0x26dc
        0x00001284:    49b9        .I      LDR      r1,[pc,#740] ; [0x156c] = 0x20000433
        0x00001286:    220a        ."      MOVS     r2,#0xa
        0x00001288:    3936        69      SUBS     r1,r1,#0x36
        0x0000128a:    4620         F      MOV      r0,r4
        0x0000128c:    f001fa26    ..&.    BL       UART_Write ; 0x26dc
        0x00001290:    f7fff956    ..V.    BL       read_distance_absolute_set_display ; 0x540
        0x00001294:    e7ce        ..      B        0x1234 ; print_page_setting_1 + 80
        0x00001296:    49b8        .I      LDR      r1,[pc,#736] ; [0x1578] = 0x20000333
        0x00001298:    2251        Q"      MOVS     r2,#0x51
        0x0000129a:    313d        =1      ADDS     r1,r1,#0x3d
        0x0000129c:    4620         F      MOV      r0,r4
        0x0000129e:    f001fa1d    ....    BL       UART_Write ; 0x26dc
        0x000012a2:    49b2        .I      LDR      r1,[pc,#712] ; [0x156c] = 0x20000433
        0x000012a4:    220a        ."      MOVS     r2,#0xa
        0x000012a6:    3936        69      SUBS     r1,r1,#0x36
        0x000012a8:    4620         F      MOV      r0,r4
        0x000012aa:    f001fa17    ....    BL       UART_Write ; 0x26dc
        0x000012ae:    f7fff956    ..V.    BL       read_power_stage_one_display ; 0x55e
        0x000012b2:    2128        (!      MOVS     r1,#0x28
        0x000012b4:    fbb0f0f1    ....    UDIV     r0,r0,r1
        0x000012b8:    e7bc        ..      B        0x1234 ; print_page_setting_1 + 80
        0x000012ba:    e01c        ..      B        0x12f6 ; print_page_setting_1 + 274
        0x000012bc:    49ab        .I      LDR      r1,[pc,#684] ; [0x156c] = 0x20000433
        0x000012be:    223c        <"      MOVS     r2,#0x3c
        0x000012c0:    3972        r9      SUBS     r1,r1,#0x72
        0x000012c2:    4620         F      MOV      r0,r4
        0x000012c4:    f001fa0a    ....    BL       UART_Write ; 0x26dc
        0x000012c8:    49a8        .I      LDR      r1,[pc,#672] ; [0x156c] = 0x20000433
        0x000012ca:    220a        ."      MOVS     r2,#0xa
        0x000012cc:    3936        69      SUBS     r1,r1,#0x36
        0x000012ce:    4620         F      MOV      r0,r4
        0x000012d0:    f001fa04    ....    BL       UART_Write ; 0x26dc
        0x000012d4:    f7fff93c    ..<.    BL       read_energy_set_display ; 0x550
        0x000012d8:    e7ac        ..      B        0x1234 ; print_page_setting_1 + 80
        0x000012da:    49a7        .I      LDR      r1,[pc,#668] ; [0x1578] = 0x20000333
        0x000012dc:    4620         F      MOV      r0,r4
        0x000012de:    3979        y9      SUBS     r1,r1,#0x79
        0x000012e0:    f001f9fc    ....    BL       UART_Write ; 0x26dc
        0x000012e4:    49a1        .I      LDR      r1,[pc,#644] ; [0x156c] = 0x20000433
        0x000012e6:    220a        ."      MOVS     r2,#0xa
        0x000012e8:    3936        69      SUBS     r1,r1,#0x36
        0x000012ea:    4620         F      MOV      r0,r4
        0x000012ec:    f001f9f6    ....    BL       UART_Write ; 0x26dc
        0x000012f0:    f7fff939    ..9.    BL       read_gnd_display ; 0x566
        0x000012f4:    e79c        ..      B        0x1230 ; print_page_setting_1 + 76
        0x000012f6:    499d        .I      LDR      r1,[pc,#628] ; [0x156c] = 0x20000433
        0x000012f8:    314a        J1      ADDS     r1,r1,#0x4a
        0x000012fa:    4620         F      MOV      r0,r4
        0x000012fc:    f001f9ee    ....    BL       UART_Write ; 0x26dc
        0x00001300:    f7fff993    ....    BL       read_mode_early_stage_display ; 0x62a
        0x00001304:    f04f0215    O...    MOV      r2,#0x15
        0x00001308:    b110        ..      CBZ      r0,0x1310 ; print_page_setting_1 + 300
        0x0000130a:    4998        .I      LDR      r1,[pc,#608] ; [0x156c] = 0x20000433
        0x0000130c:    3183        .1      ADDS     r1,r1,#0x83
        0x0000130e:    e001        ..      B        0x1314 ; print_page_setting_1 + 304
        0x00001310:    4996        .I      LDR      r1,[pc,#600] ; [0x156c] = 0x20000433
        0x00001312:    3198        .1      ADDS     r1,r1,#0x98
        0x00001314:    4620         F      MOV      r0,r4
        0x00001316:    f001f9e1    ....    BL       UART_Write ; 0x26dc
        0x0000131a:    f7fff9b0    ....    BL       read_mode_after_stage_display ; 0x67e
        0x0000131e:    f04f0217    O...    MOV      r2,#0x17
        0x00001322:    b110        ..      CBZ      r0,0x132a ; print_page_setting_1 + 326
        0x00001324:    4991        .I      LDR      r1,[pc,#580] ; [0x156c] = 0x20000433
        0x00001326:    31ad        .1      ADDS     r1,r1,#0xad
        0x00001328:    e001        ..      B        0x132e ; print_page_setting_1 + 330
        0x0000132a:    4990        .I      LDR      r1,[pc,#576] ; [0x156c] = 0x20000433
        0x0000132c:    31c4        .1      ADDS     r1,r1,#0xc4
        0x0000132e:    4620         F      MOV      r0,r4
        0x00001330:    f001f9d4    ....    BL       UART_Write ; 0x26dc
        0x00001334:    498d        .I      LDR      r1,[pc,#564] ; [0x156c] = 0x20000433
        0x00001336:    2212        ."      MOVS     r2,#0x12
        0x00001338:    392c        ,9      SUBS     r1,r1,#0x2c
        0x0000133a:    4620         F      MOV      r0,r4
        0x0000133c:    f001f9ce    ....    BL       UART_Write ; 0x26dc
        0x00001340:    f7fff8dd    ....    BL       read_force_set_display ; 0x4fe
        0x00001344:    f7ffff08    ....    BL       binary_to_bcd_array ; 0x1158
        0x00001348:    2205        ."      MOVS     r2,#5
        0x0000134a:    4987        .I      LDR      r1,[pc,#540] ; [0x1568] = 0x20000208
        0x0000134c:    4620         F      MOV      r0,r4
        0x0000134e:    f001f9c5    ....    BL       UART_Write ; 0x26dc
        0x00001352:    2203        ."      MOVS     r2,#3
        0x00001354:    4987        .I      LDR      r1,[pc,#540] ; [0x1574] = 0x2000002c
        0x00001356:    4620         F      MOV      r0,r4
        0x00001358:    f001f9c0    ....    BL       UART_Write ; 0x26dc
        0x0000135c:    4983        .I      LDR      r1,[pc,#524] ; [0x156c] = 0x20000433
        0x0000135e:    220c        ."      MOVS     r2,#0xc
        0x00001360:    391a        .9      SUBS     r1,r1,#0x1a
        0x00001362:    4620         F      MOV      r0,r4
        0x00001364:    f001f9ba    ....    BL       UART_Write ; 0x26dc
        0x00001368:    f7fff8c3    ....    BL       read_amplitude_set_display ; 0x4f2
        0x0000136c:    f7fffef4    ....    BL       binary_to_bcd_array ; 0x1158
        0x00001370:    2205        ."      MOVS     r2,#5
        0x00001372:    497d        }I      LDR      r1,[pc,#500] ; [0x1568] = 0x20000208
        0x00001374:    4620         F      MOV      r0,r4
        0x00001376:    f001f9b1    ....    BL       UART_Write ; 0x26dc
        0x0000137a:    2203        ."      MOVS     r2,#3
        0x0000137c:    497d        }I      LDR      r1,[pc,#500] ; [0x1574] = 0x2000002c
        0x0000137e:    4620         F      MOV      r0,r4
        0x00001380:    f001f9ac    ....    BL       UART_Write ; 0x26dc
        0x00001384:    4979        yI      LDR      r1,[pc,#484] ; [0x156c] = 0x20000433
        0x00001386:    220e        ."      MOVS     r2,#0xe
        0x00001388:    390e        .9      SUBS     r1,r1,#0xe
        0x0000138a:    4620         F      MOV      r0,r4
        0x0000138c:    f001f9a6    ....    BL       UART_Write ; 0x26dc
        0x00001390:    f7fff8b8    ....    BL       read_hold_time_display ; 0x504
        0x00001394:    fbb0f0f5    ....    UDIV     r0,r0,r5
        0x00001398:    f7fffede    ....    BL       binary_to_bcd_array ; 0x1158
        0x0000139c:    2205        ."      MOVS     r2,#5
        0x0000139e:    4972        rI      LDR      r1,[pc,#456] ; [0x1568] = 0x20000208
        0x000013a0:    4620         F      MOV      r0,r4
        0x000013a2:    f001f99b    ....    BL       UART_Write ; 0x26dc
        0x000013a6:    4620         F      MOV      r0,r4
        0x000013a8:    e8bd4070    ..p@    POP      {r4-r6,lr}
        0x000013ac:    2203        ."      MOVS     r2,#3
        0x000013ae:    4971        qI      LDR      r1,[pc,#452] ; [0x1574] = 0x2000002c
        0x000013b0:    f001b994    ....    B.W      UART_Write ; 0x26dc
    print_page_setting_2
        0x000013b4:    b510        ..      PUSH     {r4,lr}
        0x000013b6:    4c6e        nL      LDR      r4,[pc,#440] ; [0x1570] = 0x40071000
        0x000013b8:    220f        ."      MOVS     r2,#0xf
        0x000013ba:    4970        pI      LDR      r1,[pc,#448] ; [0x157c] = 0x2000053b
        0x000013bc:    4620         F      MOV      r0,r4
        0x000013be:    f001f98d    ....    BL       UART_Write ; 0x26dc
        0x000013c2:    f7fff899    ....    BL       read_timeout_set_display ; 0x4f8
        0x000013c6:    210a        .!      MOVS     r1,#0xa
        0x000013c8:    fbb0f0f1    ....    UDIV     r0,r0,r1
        0x000013cc:    f7fffec4    ....    BL       binary_to_bcd_array ; 0x1158
        0x000013d0:    2205        ."      MOVS     r2,#5
        0x000013d2:    4965        eI      LDR      r1,[pc,#404] ; [0x1568] = 0x20000208
        0x000013d4:    4620         F      MOV      r0,r4
        0x000013d6:    f001f981    ....    BL       UART_Write ; 0x26dc
        0x000013da:    4620         F      MOV      r0,r4
        0x000013dc:    e8bd4010    ...@    POP      {r4,lr}
        0x000013e0:    2203        ."      MOVS     r2,#3
        0x000013e2:    4964        dI      LDR      r1,[pc,#400] ; [0x1574] = 0x2000002c
        0x000013e4:    f001b97a    ..z.    B.W      UART_Write ; 0x26dc
    print_page_SectionVib
        0x000013e8:    b510        ..      PUSH     {r4,lr}
        0x000013ea:    4964        dI      LDR      r1,[pc,#400] ; [0x157c] = 0x2000053b
        0x000013ec:    4c60        `L      LDR      r4,[pc,#384] ; [0x1570] = 0x40071000
        0x000013ee:    220d        ."      MOVS     r2,#0xd
        0x000013f0:    3120         1      ADDS     r1,r1,#0x20
        0x000013f2:    4620         F      MOV      r0,r4
        0x000013f4:    f001f972    ..r.    BL       UART_Write ; 0x26dc
        0x000013f8:    f7fff8d7    ....    BL       read_amplitudeA_set_stage2_display ; 0x5aa
        0x000013fc:    f7fffeac    ....    BL       binary_to_bcd_array ; 0x1158
        0x00001400:    2205        ."      MOVS     r2,#5
        0x00001402:    4959        YI      LDR      r1,[pc,#356] ; [0x1568] = 0x20000208
        0x00001404:    4620         F      MOV      r0,r4
        0x00001406:    f001f969    ..i.    BL       UART_Write ; 0x26dc
        0x0000140a:    2203        ."      MOVS     r2,#3
        0x0000140c:    4959        YI      LDR      r1,[pc,#356] ; [0x1574] = 0x2000002c
        0x0000140e:    4620         F      MOV      r0,r4
        0x00001410:    f001f964    ..d.    BL       UART_Write ; 0x26dc
        0x00001414:    4959        YI      LDR      r1,[pc,#356] ; [0x157c] = 0x2000053b
        0x00001416:    220d        ."      MOVS     r2,#0xd
        0x00001418:    312d        -1      ADDS     r1,r1,#0x2d
        0x0000141a:    4620         F      MOV      r0,r4
        0x0000141c:    f001f95e    ..^.    BL       UART_Write ; 0x26dc
        0x00001420:    f7fff8c6    ....    BL       read_amplitudeB_set_stage2_display ; 0x5b0
        0x00001424:    f7fffe98    ....    BL       binary_to_bcd_array ; 0x1158
        0x00001428:    2205        ."      MOVS     r2,#5
        0x0000142a:    494f        OI      LDR      r1,[pc,#316] ; [0x1568] = 0x20000208
        0x0000142c:    4620         F      MOV      r0,r4
        0x0000142e:    f001f955    ..U.    BL       UART_Write ; 0x26dc
        0x00001432:    2203        ."      MOVS     r2,#3
        0x00001434:    494f        OI      LDR      r1,[pc,#316] ; [0x1574] = 0x2000002c
        0x00001436:    4620         F      MOV      r0,r4
        0x00001438:    f001f950    ..P.    BL       UART_Write ; 0x26dc
        0x0000143c:    f7fff8b1    ....    BL       read_stage2_mode_address_display ; 0x5a2
        0x00001440:    2803        .(      CMP      r0,#3
        0x00001442:    d022        ".      BEQ      0x148a ; print_page_SectionVib + 162
        0x00001444:    f7fff8ad    ....    BL       read_stage2_mode_address_display ; 0x5a2
        0x00001448:    2804        .(      CMP      r0,#4
        0x0000144a:    d028        (.      BEQ      0x149e ; print_page_SectionVib + 182
        0x0000144c:    f7fff8a9    ....    BL       read_stage2_mode_address_display ; 0x5a2
        0x00001450:    2805        .(      CMP      r0,#5
        0x00001452:    d02d        -.      BEQ      0x14b0 ; print_page_SectionVib + 200
        0x00001454:    f7fff8a5    ....    BL       read_stage2_mode_address_display ; 0x5a2
        0x00001458:    4948        HI      LDR      r1,[pc,#288] ; [0x157c] = 0x2000053b
        0x0000145a:    2806        .(      CMP      r0,#6
        0x0000145c:    f04f0211    O...    MOV      r2,#0x11
        0x00001460:    f101010f    ....    ADD      r1,r1,#0xf
        0x00001464:    4620         F      MOV      r0,r4
        0x00001466:    d02f        /.      BEQ      0x14c8 ; print_page_SectionVib + 224
        0x00001468:    f001f938    ..8.    BL       UART_Write ; 0x26dc
        0x0000146c:    2000        .       MOVS     r0,#0
        0x0000146e:    f7fffe73    ..s.    BL       binary_to_bcd_array ; 0x1158
        0x00001472:    2205        ."      MOVS     r2,#5
        0x00001474:    493c        <I      LDR      r1,[pc,#240] ; [0x1568] = 0x20000208
        0x00001476:    4620         F      MOV      r0,r4
        0x00001478:    f001f930    ..0.    BL       UART_Write ; 0x26dc
        0x0000147c:    4620         F      MOV      r0,r4
        0x0000147e:    e8bd4010    ...@    POP      {r4,lr}
        0x00001482:    2203        ."      MOVS     r2,#3
        0x00001484:    493b        ;I      LDR      r1,[pc,#236] ; [0x1574] = 0x2000002c
        0x00001486:    f001b929    ..).    B.W      UART_Write ; 0x26dc
        0x0000148a:    493c        <I      LDR      r1,[pc,#240] ; [0x157c] = 0x2000053b
        0x0000148c:    2211        ."      MOVS     r2,#0x11
        0x0000148e:    310f        .1      ADDS     r1,r1,#0xf
        0x00001490:    4620         F      MOV      r0,r4
        0x00001492:    f001f923    ..#.    BL       UART_Write ; 0x26dc
        0x00001496:    f7fff88f    ....    BL       read_time_set_stage2_display ; 0x5b8
        0x0000149a:    210a        .!      MOVS     r1,#0xa
        0x0000149c:    e011        ..      B        0x14c2 ; print_page_SectionVib + 218
        0x0000149e:    4937        7I      LDR      r1,[pc,#220] ; [0x157c] = 0x2000053b
        0x000014a0:    2211        ."      MOVS     r2,#0x11
        0x000014a2:    310f        .1      ADDS     r1,r1,#0xf
        0x000014a4:    4620         F      MOV      r0,r4
        0x000014a6:    f001f919    ....    BL       UART_Write ; 0x26dc
        0x000014aa:    f7fff88e    ....    BL       read_distance_set_stage2_display ; 0x5ca
        0x000014ae:    e7de        ..      B        0x146e ; print_page_SectionVib + 134
        0x000014b0:    4932        2I      LDR      r1,[pc,#200] ; [0x157c] = 0x2000053b
        0x000014b2:    2211        ."      MOVS     r2,#0x11
        0x000014b4:    310f        .1      ADDS     r1,r1,#0xf
        0x000014b6:    4620         F      MOV      r0,r4
        0x000014b8:    f001f910    ....    BL       UART_Write ; 0x26dc
        0x000014bc:    f7fff88e    ....    BL       read_power_set_stage2_display ; 0x5dc
        0x000014c0:    2128        (!      MOVS     r1,#0x28
        0x000014c2:    fbb0f0f1    ....    UDIV     r0,r0,r1
        0x000014c6:    e7d2        ..      B        0x146e ; print_page_SectionVib + 134
        0x000014c8:    f001f908    ....    BL       UART_Write ; 0x26dc
        0x000014cc:    f7fff88f    ....    BL       read_energy_set_stage2_display ; 0x5ee
        0x000014d0:    e7cd        ..      B        0x146e ; print_page_SectionVib + 134
    print_page_head_down
        0x000014d2:    b570        p.      PUSH     {r4-r6,lr}
        0x000014d4:    4929        )I      LDR      r1,[pc,#164] ; [0x157c] = 0x2000053b
        0x000014d6:    4d26        &M      LDR      r5,[pc,#152] ; [0x1570] = 0x40071000
        0x000014d8:    2209        ."      MOVS     r2,#9
        0x000014da:    313a        :1      ADDS     r1,r1,#0x3a
        0x000014dc:    4628        (F      MOV      r0,r5
        0x000014de:    f001f8fd    ....    BL       UART_Write ; 0x26dc
        0x000014e2:    f7fff998    ....    BL       read_pressure_display ; 0x816
        0x000014e6:    f7fffe37    ..7.    BL       binary_to_bcd_array ; 0x1158
        0x000014ea:    2205        ."      MOVS     r2,#5
        0x000014ec:    491e        .I      LDR      r1,[pc,#120] ; [0x1568] = 0x20000208
        0x000014ee:    4628        (F      MOV      r0,r5
        0x000014f0:    f001f8f4    ....    BL       UART_Write ; 0x26dc
        0x000014f4:    2203        ."      MOVS     r2,#3
        0x000014f6:    491f        .I      LDR      r1,[pc,#124] ; [0x1574] = 0x2000002c
        0x000014f8:    4628        (F      MOV      r0,r5
        0x000014fa:    f001f8ef    ....    BL       UART_Write ; 0x26dc
        0x000014fe:    491f        .I      LDR      r1,[pc,#124] ; [0x157c] = 0x2000053b
        0x00001500:    2209        ."      MOVS     r2,#9
        0x00001502:    3143        C1      ADDS     r1,r1,#0x43
        0x00001504:    4628        (F      MOV      r0,r5
        0x00001506:    f001f8e9    ....    BL       UART_Write ; 0x26dc
        0x0000150a:    f7fff99e    ....    BL       read_force_display ; 0x84a
        0x0000150e:    f7fffe23    ..#.    BL       binary_to_bcd_array ; 0x1158
        0x00001512:    2205        ."      MOVS     r2,#5
        0x00001514:    4914        .I      LDR      r1,[pc,#80] ; [0x1568] = 0x20000208
        0x00001516:    4628        (F      MOV      r0,r5
        0x00001518:    f001f8e0    ....    BL       UART_Write ; 0x26dc
        0x0000151c:    2203        ."      MOVS     r2,#3
        0x0000151e:    4915        .I      LDR      r1,[pc,#84] ; [0x1574] = 0x2000002c
        0x00001520:    4628        (F      MOV      r0,r5
        0x00001522:    f001f8db    ....    BL       UART_Write ; 0x26dc
        0x00001526:    4915        .I      LDR      r1,[pc,#84] ; [0x157c] = 0x2000053b
        0x00001528:    220b        ."      MOVS     r2,#0xb
        0x0000152a:    315a        Z1      ADDS     r1,r1,#0x5a
        0x0000152c:    4628        (F      MOV      r0,r5
        0x0000152e:    f001f8d5    ....    BL       UART_Write ; 0x26dc
        0x00001532:    f7fff97d    ..}.    BL       read_encoder_speed_display ; 0x830
        0x00001536:    f7fffe0f    ....    BL       binary_to_bcd_array ; 0x1158
        0x0000153a:    2205        ."      MOVS     r2,#5
        0x0000153c:    490a        .I      LDR      r1,[pc,#40] ; [0x1568] = 0x20000208
        0x0000153e:    4628        (F      MOV      r0,r5
        0x00001540:    f001f8cc    ....    BL       UART_Write ; 0x26dc
        0x00001544:    2203        ."      MOVS     r2,#3
        0x00001546:    490b        .I      LDR      r1,[pc,#44] ; [0x1574] = 0x2000002c
        0x00001548:    4628        (F      MOV      r0,r5
        0x0000154a:    f001f8c7    ....    BL       UART_Write ; 0x26dc
        0x0000154e:    490b        .I      LDR      r1,[pc,#44] ; [0x157c] = 0x2000053b
        0x00001550:    220e        ."      MOVS     r2,#0xe
        0x00001552:    314c        L1      ADDS     r1,r1,#0x4c
        0x00001554:    4628        (F      MOV      r0,r5
        0x00001556:    f001f8c1    ....    BL       UART_Write ; 0x26dc
        0x0000155a:    f7fff97a    ..z.    BL       read_distance_display ; 0x852
        0x0000155e:    f7fffdfb    ....    BL       binary_to_bcd_array ; 0x1158
        0x00001562:    2203        ."      MOVS     r2,#3
        0x00001564:    4900        .I      LDR      r1,[pc,#0] ; [0x1568] = 0x20000208
        0x00001566:    e00b        ..      B        0x1580 ; print_page_head_down + 174
    $d
        0x00001568:    20000208    ...     DCD    536871432
        0x0000156c:    20000433    3..     DCD    536871987
        0x00001570:    40071000    ...@    DCD    1074204672
        0x00001574:    2000002c    ,..     DCD    536870956
        0x00001578:    20000333    3..     DCD    536871731
        0x0000157c:    2000053b    ;..     DCD    536872251
    $t
        0x00001580:    4628        (F      MOV      r0,r5
        0x00001582:    f001f8ab    ....    BL       UART_Write ; 0x26dc
        0x00001586:    4cff        .L      LDR      r4,[pc,#1020] ; [0x1984] = 0x200001f8
        0x00001588:    202e        .       MOVS     r0,#0x2e
        0x0000158a:    2201        ."      MOVS     r2,#1
        0x0000158c:    7020         p      STRB     r0,[r4,#0]
        0x0000158e:    4621        !F      MOV      r1,r4
        0x00001590:    4628        (F      MOV      r0,r5
        0x00001592:    f001f8a3    ....    BL       UART_Write ; 0x26dc
        0x00001596:    f1040610    ....    ADD      r6,r4,#0x10
        0x0000159a:    2201        ."      MOVS     r2,#1
        0x0000159c:    78f0        .x      LDRB     r0,[r6,#3]
        0x0000159e:    7020         p      STRB     r0,[r4,#0]
        0x000015a0:    4621        !F      MOV      r1,r4
        0x000015a2:    4628        (F      MOV      r0,r5
        0x000015a4:    f001f89a    ....    BL       UART_Write ; 0x26dc
        0x000015a8:    7930        0y      LDRB     r0,[r6,#4]
        0x000015aa:    7020         p      STRB     r0,[r4,#0]
        0x000015ac:    2201        ."      MOVS     r2,#1
        0x000015ae:    4621        !F      MOV      r1,r4
        0x000015b0:    4628        (F      MOV      r0,r5
        0x000015b2:    f001f893    ....    BL       UART_Write ; 0x26dc
        0x000015b6:    2022        "       MOVS     r0,#0x22
        0x000015b8:    7020         p      STRB     r0,[r4,#0]
        0x000015ba:    2201        ."      MOVS     r2,#1
        0x000015bc:    4621        !F      MOV      r1,r4
        0x000015be:    4628        (F      MOV      r0,r5
        0x000015c0:    f001f88c    ....    BL       UART_Write ; 0x26dc
        0x000015c4:    4628        (F      MOV      r0,r5
        0x000015c6:    e8bd4070    ..p@    POP      {r4-r6,lr}
        0x000015ca:    2203        ."      MOVS     r2,#3
        0x000015cc:    49ee        .I      LDR      r1,[pc,#952] ; [0x1988] = 0x2000002c
        0x000015ce:    f001b885    ....    B.W      UART_Write ; 0x26dc
    print_page_weld_record
        0x000015d2:    e92d41f0    -..A    PUSH     {r4-r8,lr}
        0x000015d6:    f8df83b8    ....    LDR      r8,[pc,#952] ; [0x1990] = 0x40071000
        0x000015da:    2209        ."      MOVS     r2,#9
        0x000015dc:    49eb        .I      LDR      r1,[pc,#940] ; [0x198c] = 0x200005d6
        0x000015de:    4640        @F      MOV      r0,r8
        0x000015e0:    f001f87c    ..|.    BL       UART_Write ; 0x26dc
        0x000015e4:    f7fff873    ..s.    BL       read_history_point_set ; 0x6ce
        0x000015e8:    f7fffdb6    ....    BL       binary_to_bcd_array ; 0x1158
        0x000015ec:    4de5        .M      LDR      r5,[pc,#916] ; [0x1984] = 0x200001f8
        0x000015ee:    2203        ."      MOVS     r2,#3
        0x000015f0:    3510        .5      ADDS     r5,r5,#0x10
        0x000015f2:    f1a5060f    ....    SUB      r6,r5,#0xf
        0x000015f6:    78a8        .x      LDRB     r0,[r5,#2]
        0x000015f8:    7030        0p      STRB     r0,[r6,#0]
        0x000015fa:    78e8        .x      LDRB     r0,[r5,#3]
        0x000015fc:    7070        pp      STRB     r0,[r6,#1]
        0x000015fe:    7928        (y      LDRB     r0,[r5,#4]
        0x00001600:    70b0        .p      STRB     r0,[r6,#2]
        0x00001602:    4631        1F      MOV      r1,r6
        0x00001604:    4640        @F      MOV      r0,r8
        0x00001606:    f001f869    ..i.    BL       UART_Write ; 0x26dc
        0x0000160a:    1e74        t.      SUBS     r4,r6,#1
        0x0000160c:    202f        /       MOVS     r0,#0x2f
        0x0000160e:    7020         p      STRB     r0,[r4,#0]
        0x00001610:    2201        ."      MOVS     r2,#1
        0x00001612:    4621        !F      MOV      r1,r4
        0x00001614:    4640        @F      MOV      r0,r8
        0x00001616:    f001f861    ..a.    BL       UART_Write ; 0x26dc
        0x0000161a:    f7fff855    ..U.    BL       read_history_point_display ; 0x6c8
        0x0000161e:    f7fffd9b    ....    BL       binary_to_bcd_array ; 0x1158
        0x00001622:    78a8        .x      LDRB     r0,[r5,#2]
        0x00001624:    7030        0p      STRB     r0,[r6,#0]
        0x00001626:    78e8        .x      LDRB     r0,[r5,#3]
        0x00001628:    7070        pp      STRB     r0,[r6,#1]
        0x0000162a:    7928        (y      LDRB     r0,[r5,#4]
        0x0000162c:    70b0        .p      STRB     r0,[r6,#2]
        0x0000162e:    2203        ."      MOVS     r2,#3
        0x00001630:    1c61        a.      ADDS     r1,r4,#1
        0x00001632:    4640        @F      MOV      r0,r8
        0x00001634:    f001f852    ..R.    BL       UART_Write ; 0x26dc
        0x00001638:    2622        "&      MOVS     r6,#0x22
        0x0000163a:    7026        &p      STRB     r6,[r4,#0]
        0x0000163c:    2201        ."      MOVS     r2,#1
        0x0000163e:    4621        !F      MOV      r1,r4
        0x00001640:    4640        @F      MOV      r0,r8
        0x00001642:    f001f84b    ..K.    BL       UART_Write ; 0x26dc
        0x00001646:    2203        ."      MOVS     r2,#3
        0x00001648:    49cf        .I      LDR      r1,[pc,#828] ; [0x1988] = 0x2000002c
        0x0000164a:    4640        @F      MOV      r0,r8
        0x0000164c:    f001f846    ..F.    BL       UART_Write ; 0x26dc
        0x00001650:    f7fff840    ..@.    BL       read_freq_delta ; 0x6d4
        0x00001654:    4627        'F      MOV      r7,r4
        0x00001656:    2209        ."      MOVS     r2,#9
        0x00001658:    6078        x`      STR      r0,[r7,#4]
        0x0000165a:    f20431d5    ...1    ADD      r1,r4,#0x3d5
        0x0000165e:    4640        @F      MOV      r0,r8
        0x00001660:    f001f83c    ..<.    BL       UART_Write ; 0x26dc
        0x00001664:    6878        xh      LDR      r0,[r7,#4]
        0x00001666:    2800        .(      CMP      r0,#0
        0x00001668:    da03        ..      BGE      0x1672 ; print_page_weld_record + 160
        0x0000166a:    212d        -!      MOVS     r1,#0x2d
        0x0000166c:    7021        !p      STRB     r1,[r4,#0]
        0x0000166e:    4240        @B      RSBS     r0,r0,#0
        0x00001670:    e001        ..      B        0x1676 ; print_page_weld_record + 164
        0x00001672:    212b        +!      MOVS     r1,#0x2b
        0x00001674:    7021        !p      STRB     r1,[r4,#0]
        0x00001676:    60b8        .`      STR      r0,[r7,#8]
        0x00001678:    2201        ."      MOVS     r2,#1
        0x0000167a:    49c2        .I      LDR      r1,[pc,#776] ; [0x1984] = 0x200001f8
        0x0000167c:    4640        @F      MOV      r0,r8
        0x0000167e:    f001f82d    ..-.    BL       UART_Write ; 0x26dc
        0x00001682:    68b8        .h      LDR      r0,[r7,#8]
        0x00001684:    f5b07f7a    ..z.    CMP      r0,#0x3e8
        0x00001688:    da7e        ~.      BGE      0x1788 ; print_page_weld_record + 438
        0x0000168a:    f7fffd65    ..e.    BL       binary_to_bcd_array ; 0x1158
        0x0000168e:    68b8        .h      LDR      r0,[r7,#8]
        0x00001690:    2863        c(      CMP      r0,#0x63
        0x00001692:    dd06        ..      BLE      0x16a2 ; print_page_weld_record + 208
        0x00001694:    78a8        .x      LDRB     r0,[r5,#2]
        0x00001696:    7020         p      STRB     r0,[r4,#0]
        0x00001698:    2201        ."      MOVS     r2,#1
        0x0000169a:    49ba        .I      LDR      r1,[pc,#744] ; [0x1984] = 0x200001f8
        0x0000169c:    4640        @F      MOV      r0,r8
        0x0000169e:    f001f81d    ....    BL       UART_Write ; 0x26dc
        0x000016a2:    68b8        .h      LDR      r0,[r7,#8]
        0x000016a4:    2809        .(      CMP      r0,#9
        0x000016a6:    dd06        ..      BLE      0x16b6 ; print_page_weld_record + 228
        0x000016a8:    78e8        .x      LDRB     r0,[r5,#3]
        0x000016aa:    7020         p      STRB     r0,[r4,#0]
        0x000016ac:    2201        ."      MOVS     r2,#1
        0x000016ae:    49b5        .I      LDR      r1,[pc,#724] ; [0x1984] = 0x200001f8
        0x000016b0:    4640        @F      MOV      r0,r8
        0x000016b2:    f001f813    ....    BL       UART_Write ; 0x26dc
        0x000016b6:    7928        (y      LDRB     r0,[r5,#4]
        0x000016b8:    7020         p      STRB     r0,[r4,#0]
        0x000016ba:    2201        ."      MOVS     r2,#1
        0x000016bc:    49b1        .I      LDR      r1,[pc,#708] ; [0x1984] = 0x200001f8
        0x000016be:    4640        @F      MOV      r0,r8
        0x000016c0:    f001f80c    ....    BL       UART_Write ; 0x26dc
        0x000016c4:    7026        &p      STRB     r6,[r4,#0]
        0x000016c6:    2201        ."      MOVS     r2,#1
        0x000016c8:    49ae        .I      LDR      r1,[pc,#696] ; [0x1984] = 0x200001f8
        0x000016ca:    4640        @F      MOV      r0,r8
        0x000016cc:    f001f806    ....    BL       UART_Write ; 0x26dc
        0x000016d0:    2203        ."      MOVS     r2,#3
        0x000016d2:    49ad        .I      LDR      r1,[pc,#692] ; [0x1988] = 0x2000002c
        0x000016d4:    4640        @F      MOV      r0,r8
        0x000016d6:    f001f801    ....    BL       UART_Write ; 0x26dc
        0x000016da:    49aa        .I      LDR      r1,[pc,#680] ; [0x1984] = 0x200001f8
        0x000016dc:    2207        ."      MOVS     r2,#7
        0x000016de:    3115        .1      ADDS     r1,r1,#0x15
        0x000016e0:    4640        @F      MOV      r0,r8
        0x000016e2:    f000fffb    ....    BL       UART_Write ; 0x26dc
        0x000016e6:    f7fefffd    ....    BL       read_freq_start ; 0x6e4
        0x000016ea:    f7fffd35    ..5.    BL       binary_to_bcd_array ; 0x1158
        0x000016ee:    49a5        .I      LDR      r1,[pc,#660] ; [0x1984] = 0x200001f8
        0x000016f0:    2205        ."      MOVS     r2,#5
        0x000016f2:    3110        .1      ADDS     r1,r1,#0x10
        0x000016f4:    4640        @F      MOV      r0,r8
        0x000016f6:    f000fff1    ....    BL       UART_Write ; 0x26dc
        0x000016fa:    2203        ."      MOVS     r2,#3
        0x000016fc:    49a2        .I      LDR      r1,[pc,#648] ; [0x1988] = 0x2000002c
        0x000016fe:    4640        @F      MOV      r0,r8
        0x00001700:    f000ffec    ....    BL       UART_Write ; 0x26dc
        0x00001704:    499f        .I      LDR      r1,[pc,#636] ; [0x1984] = 0x200001f8
        0x00001706:    2207        ."      MOVS     r2,#7
        0x00001708:    311c        .1      ADDS     r1,r1,#0x1c
        0x0000170a:    4640        @F      MOV      r0,r8
        0x0000170c:    f000ffe6    ....    BL       UART_Write ; 0x26dc
        0x00001710:    f7fefff1    ....    BL       read_freq_end ; 0x6f6
        0x00001714:    f7fffd20    .. .    BL       binary_to_bcd_array ; 0x1158
        0x00001718:    499a        .I      LDR      r1,[pc,#616] ; [0x1984] = 0x200001f8
        0x0000171a:    2205        ."      MOVS     r2,#5
        0x0000171c:    3110        .1      ADDS     r1,r1,#0x10
        0x0000171e:    4640        @F      MOV      r0,r8
        0x00001720:    f000ffdc    ....    BL       UART_Write ; 0x26dc
        0x00001724:    2203        ."      MOVS     r2,#3
        0x00001726:    4998        .I      LDR      r1,[pc,#608] ; [0x1988] = 0x2000002c
        0x00001728:    4640        @F      MOV      r0,r8
        0x0000172a:    f000ffd7    ....    BL       UART_Write ; 0x26dc
        0x0000172e:    4995        .I      LDR      r1,[pc,#596] ; [0x1984] = 0x200001f8
        0x00001730:    2207        ."      MOVS     r2,#7
        0x00001732:    3123        #1      ADDS     r1,r1,#0x23
        0x00001734:    4640        @F      MOV      r0,r8
        0x00001736:    f000ffd1    ....    BL       UART_Write ; 0x26dc
        0x0000173a:    f7feffe5    ....    BL       read_freq_max ; 0x708
        0x0000173e:    f7fffd0b    ....    BL       binary_to_bcd_array ; 0x1158
        0x00001742:    4990        .I      LDR      r1,[pc,#576] ; [0x1984] = 0x200001f8
        0x00001744:    2205        ."      MOVS     r2,#5
        0x00001746:    3110        .1      ADDS     r1,r1,#0x10
        0x00001748:    4640        @F      MOV      r0,r8
        0x0000174a:    f000ffc7    ....    BL       UART_Write ; 0x26dc
        0x0000174e:    2203        ."      MOVS     r2,#3
        0x00001750:    498d        .I      LDR      r1,[pc,#564] ; [0x1988] = 0x2000002c
        0x00001752:    4640        @F      MOV      r0,r8
        0x00001754:    f000ffc2    ....    BL       UART_Write ; 0x26dc
        0x00001758:    498a        .I      LDR      r1,[pc,#552] ; [0x1984] = 0x200001f8
        0x0000175a:    2207        ."      MOVS     r2,#7
        0x0000175c:    312a        *1      ADDS     r1,r1,#0x2a
        0x0000175e:    4640        @F      MOV      r0,r8
        0x00001760:    f000ffbc    ....    BL       UART_Write ; 0x26dc
        0x00001764:    f7feffd9    ....    BL       read_freq_min ; 0x71a
        0x00001768:    f7fffcf6    ....    BL       binary_to_bcd_array ; 0x1158
        0x0000176c:    4985        .I      LDR      r1,[pc,#532] ; [0x1984] = 0x200001f8
        0x0000176e:    2205        ."      MOVS     r2,#5
        0x00001770:    3110        .1      ADDS     r1,r1,#0x10
        0x00001772:    4640        @F      MOV      r0,r8
        0x00001774:    f000ffb2    ....    BL       UART_Write ; 0x26dc
        0x00001778:    2203        ."      MOVS     r2,#3
        0x0000177a:    4983        .I      LDR      r1,[pc,#524] ; [0x1988] = 0x2000002c
        0x0000177c:    4640        @F      MOV      r0,r8
        0x0000177e:    f000ffad    ....    BL       UART_Write ; 0x26dc
        0x00001782:    2207        ."      MOVS     r2,#7
        0x00001784:    497f        .I      LDR      r1,[pc,#508] ; [0x1984] = 0x200001f8
        0x00001786:    e000        ..      B        0x178a ; print_page_weld_record + 440
        0x00001788:    e1ab        ..      B        0x1ae2 ; print_page_weld_record + 1296
        0x0000178a:    3131        11      ADDS     r1,r1,#0x31
        0x0000178c:    4640        @F      MOV      r0,r8
        0x0000178e:    f000ffa5    ....    BL       UART_Write ; 0x26dc
        0x00001792:    f7feffcb    ....    BL       read_P_max ; 0x72c
        0x00001796:    f7fffcdf    ....    BL       binary_to_bcd_array ; 0x1158
        0x0000179a:    497a        zI      LDR      r1,[pc,#488] ; [0x1984] = 0x200001f8
        0x0000179c:    2205        ."      MOVS     r2,#5
        0x0000179e:    3110        .1      ADDS     r1,r1,#0x10
        0x000017a0:    4640        @F      MOV      r0,r8
        0x000017a2:    f000ff9b    ....    BL       UART_Write ; 0x26dc
        0x000017a6:    2203        ."      MOVS     r2,#3
        0x000017a8:    4977        wI      LDR      r1,[pc,#476] ; [0x1988] = 0x2000002c
        0x000017aa:    4640        @F      MOV      r0,r8
        0x000017ac:    f000ff96    ....    BL       UART_Write ; 0x26dc
        0x000017b0:    4974        tI      LDR      r1,[pc,#464] ; [0x1984] = 0x200001f8
        0x000017b2:    2207        ."      MOVS     r2,#7
        0x000017b4:    3138        81      ADDS     r1,r1,#0x38
        0x000017b6:    4640        @F      MOV      r0,r8
        0x000017b8:    f000ff90    ....    BL       UART_Write ; 0x26dc
        0x000017bc:    f7feffbf    ....    BL       read_avg_power ; 0x73e
        0x000017c0:    f7fffcca    ....    BL       binary_to_bcd_array ; 0x1158
        0x000017c4:    496f        oI      LDR      r1,[pc,#444] ; [0x1984] = 0x200001f8
        0x000017c6:    2205        ."      MOVS     r2,#5
        0x000017c8:    3110        .1      ADDS     r1,r1,#0x10
        0x000017ca:    4640        @F      MOV      r0,r8
        0x000017cc:    f000ff86    ....    BL       UART_Write ; 0x26dc
        0x000017d0:    2203        ."      MOVS     r2,#3
        0x000017d2:    496d        mI      LDR      r1,[pc,#436] ; [0x1988] = 0x2000002c
        0x000017d4:    4640        @F      MOV      r0,r8
        0x000017d6:    f000ff81    ....    BL       UART_Write ; 0x26dc
        0x000017da:    496a        jI      LDR      r1,[pc,#424] ; [0x1984] = 0x200001f8
        0x000017dc:    2207        ."      MOVS     r2,#7
        0x000017de:    313f        ?1      ADDS     r1,r1,#0x3f
        0x000017e0:    4640        @F      MOV      r0,r8
        0x000017e2:    f000ff7b    ..{.    BL       UART_Write ; 0x26dc
        0x000017e6:    f7feffb3    ....    BL       read_energy_display ; 0x750
        0x000017ea:    f7fffcb5    ....    BL       binary_to_bcd_array ; 0x1158
        0x000017ee:    4965        eI      LDR      r1,[pc,#404] ; [0x1984] = 0x200001f8
        0x000017f0:    2205        ."      MOVS     r2,#5
        0x000017f2:    3110        .1      ADDS     r1,r1,#0x10
        0x000017f4:    4640        @F      MOV      r0,r8
        0x000017f6:    f000ff71    ..q.    BL       UART_Write ; 0x26dc
        0x000017fa:    2203        ."      MOVS     r2,#3
        0x000017fc:    4962        bI      LDR      r1,[pc,#392] ; [0x1988] = 0x2000002c
        0x000017fe:    4640        @F      MOV      r0,r8
        0x00001800:    f000ff6c    ..l.    BL       UART_Write ; 0x26dc
        0x00001804:    4961        aI      LDR      r1,[pc,#388] ; [0x198c] = 0x200005d6
        0x00001806:    2209        ."      MOVS     r2,#9
        0x00001808:    3936        69      SUBS     r1,r1,#0x36
        0x0000180a:    4640        @F      MOV      r0,r8
        0x0000180c:    f000ff66    ..f.    BL       UART_Write ; 0x26dc
        0x00001810:    f7feffa7    ....    BL       read_time_on ; 0x762
        0x00001814:    f7fffca0    ....    BL       binary_to_bcd_array ; 0x1158
        0x00001818:    495a        ZI      LDR      r1,[pc,#360] ; [0x1984] = 0x200001f8
        0x0000181a:    2202        ."      MOVS     r2,#2
        0x0000181c:    3110        .1      ADDS     r1,r1,#0x10
        0x0000181e:    4640        @F      MOV      r0,r8
        0x00001820:    f000ff5c    ..\.    BL       UART_Write ; 0x26dc
        0x00001824:    272e        .'      MOVS     r7,#0x2e
        0x00001826:    7027        'p      STRB     r7,[r4,#0]
        0x00001828:    2201        ."      MOVS     r2,#1
        0x0000182a:    4956        VI      LDR      r1,[pc,#344] ; [0x1984] = 0x200001f8
        0x0000182c:    4640        @F      MOV      r0,r8
        0x0000182e:    f000ff55    ..U.    BL       UART_Write ; 0x26dc
        0x00001832:    78a8        .x      LDRB     r0,[r5,#2]
        0x00001834:    7020         p      STRB     r0,[r4,#0]
        0x00001836:    2201        ."      MOVS     r2,#1
        0x00001838:    4952        RI      LDR      r1,[pc,#328] ; [0x1984] = 0x200001f8
        0x0000183a:    4640        @F      MOV      r0,r8
        0x0000183c:    f000ff4e    ..N.    BL       UART_Write ; 0x26dc
        0x00001840:    78e8        .x      LDRB     r0,[r5,#3]
        0x00001842:    7020         p      STRB     r0,[r4,#0]
        0x00001844:    2201        ."      MOVS     r2,#1
        0x00001846:    494f        OI      LDR      r1,[pc,#316] ; [0x1984] = 0x200001f8
        0x00001848:    4640        @F      MOV      r0,r8
        0x0000184a:    f000ff47    ..G.    BL       UART_Write ; 0x26dc
        0x0000184e:    7928        (y      LDRB     r0,[r5,#4]
        0x00001850:    7020         p      STRB     r0,[r4,#0]
        0x00001852:    2201        ."      MOVS     r2,#1
        0x00001854:    494b        KI      LDR      r1,[pc,#300] ; [0x1984] = 0x200001f8
        0x00001856:    4640        @F      MOV      r0,r8
        0x00001858:    f000ff40    ..@.    BL       UART_Write ; 0x26dc
        0x0000185c:    7026        &p      STRB     r6,[r4,#0]
        0x0000185e:    2201        ."      MOVS     r2,#1
        0x00001860:    4948        HI      LDR      r1,[pc,#288] ; [0x1984] = 0x200001f8
        0x00001862:    4640        @F      MOV      r0,r8
        0x00001864:    f000ff3a    ..:.    BL       UART_Write ; 0x26dc
        0x00001868:    2203        ."      MOVS     r2,#3
        0x0000186a:    4947        GI      LDR      r1,[pc,#284] ; [0x1988] = 0x2000002c
        0x0000186c:    4640        @F      MOV      r0,r8
        0x0000186e:    f000ff35    ..5.    BL       UART_Write ; 0x26dc
        0x00001872:    4944        DI      LDR      r1,[pc,#272] ; [0x1984] = 0x200001f8
        0x00001874:    2207        ."      MOVS     r2,#7
        0x00001876:    314d        M1      ADDS     r1,r1,#0x4d
        0x00001878:    4640        @F      MOV      r0,r8
        0x0000187a:    f000ff2f    ../.    BL       UART_Write ; 0x26dc
        0x0000187e:    f7feff79    ..y.    BL       read_F_set_history ; 0x774
        0x00001882:    f7fffc69    ..i.    BL       binary_to_bcd_array ; 0x1158
        0x00001886:    493f        ?I      LDR      r1,[pc,#252] ; [0x1984] = 0x200001f8
        0x00001888:    2205        ."      MOVS     r2,#5
        0x0000188a:    3110        .1      ADDS     r1,r1,#0x10
        0x0000188c:    4640        @F      MOV      r0,r8
        0x0000188e:    f000ff25    ..%.    BL       UART_Write ; 0x26dc
        0x00001892:    2203        ."      MOVS     r2,#3
        0x00001894:    493c        <I      LDR      r1,[pc,#240] ; [0x1988] = 0x2000002c
        0x00001896:    4640        @F      MOV      r0,r8
        0x00001898:    f000ff20    .. .    BL       UART_Write ; 0x26dc
        0x0000189c:    4939        9I      LDR      r1,[pc,#228] ; [0x1984] = 0x200001f8
        0x0000189e:    2207        ."      MOVS     r2,#7
        0x000018a0:    3146        F1      ADDS     r1,r1,#0x46
        0x000018a2:    4640        @F      MOV      r0,r8
        0x000018a4:    f000ff1a    ....    BL       UART_Write ; 0x26dc
        0x000018a8:    f7feff6d    ..m.    BL       read_F_start ; 0x786
        0x000018ac:    f7fffc54    ..T.    BL       binary_to_bcd_array ; 0x1158
        0x000018b0:    4934        4I      LDR      r1,[pc,#208] ; [0x1984] = 0x200001f8
        0x000018b2:    2205        ."      MOVS     r2,#5
        0x000018b4:    3110        .1      ADDS     r1,r1,#0x10
        0x000018b6:    4640        @F      MOV      r0,r8
        0x000018b8:    f000ff10    ....    BL       UART_Write ; 0x26dc
        0x000018bc:    2203        ."      MOVS     r2,#3
        0x000018be:    4932        2I      LDR      r1,[pc,#200] ; [0x1988] = 0x2000002c
        0x000018c0:    4640        @F      MOV      r0,r8
        0x000018c2:    f000ff0b    ....    BL       UART_Write ; 0x26dc
        0x000018c6:    492f        /I      LDR      r1,[pc,#188] ; [0x1984] = 0x200001f8
        0x000018c8:    2208        ."      MOVS     r2,#8
        0x000018ca:    317e        ~1      ADDS     r1,r1,#0x7e
        0x000018cc:    4640        @F      MOV      r0,r8
        0x000018ce:    f000ff05    ....    BL       UART_Write ; 0x26dc
        0x000018d2:    f7feff61    ..a.    BL       read_F_max ; 0x798
        0x000018d6:    f7fffc3f    ..?.    BL       binary_to_bcd_array ; 0x1158
        0x000018da:    492a        *I      LDR      r1,[pc,#168] ; [0x1984] = 0x200001f8
        0x000018dc:    2205        ."      MOVS     r2,#5
        0x000018de:    3110        .1      ADDS     r1,r1,#0x10
        0x000018e0:    4640        @F      MOV      r0,r8
        0x000018e2:    f000fefb    ....    BL       UART_Write ; 0x26dc
        0x000018e6:    2203        ."      MOVS     r2,#3
        0x000018e8:    4927        'I      LDR      r1,[pc,#156] ; [0x1988] = 0x2000002c
        0x000018ea:    4640        @F      MOV      r0,r8
        0x000018ec:    f000fef6    ....    BL       UART_Write ; 0x26dc
        0x000018f0:    4924        $I      LDR      r1,[pc,#144] ; [0x1984] = 0x200001f8
        0x000018f2:    2207        ."      MOVS     r2,#7
        0x000018f4:    315b        [1      ADDS     r1,r1,#0x5b
        0x000018f6:    4640        @F      MOV      r0,r8
        0x000018f8:    f000fef0    ....    BL       UART_Write ; 0x26dc
        0x000018fc:    f7feff55    ..U.    BL       read_encoder_speed_history ; 0x7aa
        0x00001900:    f7fffc2a    ..*.    BL       binary_to_bcd_array ; 0x1158
        0x00001904:    491f        .I      LDR      r1,[pc,#124] ; [0x1984] = 0x200001f8
        0x00001906:    2205        ."      MOVS     r2,#5
        0x00001908:    3110        .1      ADDS     r1,r1,#0x10
        0x0000190a:    4640        @F      MOV      r0,r8
        0x0000190c:    f000fee6    ....    BL       UART_Write ; 0x26dc
        0x00001910:    2203        ."      MOVS     r2,#3
        0x00001912:    491d        .I      LDR      r1,[pc,#116] ; [0x1988] = 0x2000002c
        0x00001914:    4640        @F      MOV      r0,r8
        0x00001916:    f000fee1    ....    BL       UART_Write ; 0x26dc
        0x0000191a:    491c        .I      LDR      r1,[pc,#112] ; [0x198c] = 0x200005d6
        0x0000191c:    2209        ."      MOVS     r2,#9
        0x0000191e:    3924        $9      SUBS     r1,r1,#0x24
        0x00001920:    4640        @F      MOV      r0,r8
        0x00001922:    f000fedb    ....    BL       UART_Write ; 0x26dc
        0x00001926:    f7feff49    ..I.    BL       read_distance_reached ; 0x7bc
        0x0000192a:    f7fffc15    ....    BL       binary_to_bcd_array ; 0x1158
        0x0000192e:    4915        .I      LDR      r1,[pc,#84] ; [0x1984] = 0x200001f8
        0x00001930:    2203        ."      MOVS     r2,#3
        0x00001932:    3110        .1      ADDS     r1,r1,#0x10
        0x00001934:    4640        @F      MOV      r0,r8
        0x00001936:    f000fed1    ....    BL       UART_Write ; 0x26dc
        0x0000193a:    7027        'p      STRB     r7,[r4,#0]
        0x0000193c:    2201        ."      MOVS     r2,#1
        0x0000193e:    4911        .I      LDR      r1,[pc,#68] ; [0x1984] = 0x200001f8
        0x00001940:    4640        @F      MOV      r0,r8
        0x00001942:    f000fecb    ....    BL       UART_Write ; 0x26dc
        0x00001946:    78e8        .x      LDRB     r0,[r5,#3]
        0x00001948:    7020         p      STRB     r0,[r4,#0]
        0x0000194a:    2201        ."      MOVS     r2,#1
        0x0000194c:    490d        .I      LDR      r1,[pc,#52] ; [0x1984] = 0x200001f8
        0x0000194e:    4640        @F      MOV      r0,r8
        0x00001950:    f000fec4    ....    BL       UART_Write ; 0x26dc
        0x00001954:    7928        (y      LDRB     r0,[r5,#4]
        0x00001956:    7020         p      STRB     r0,[r4,#0]
        0x00001958:    2201        ."      MOVS     r2,#1
        0x0000195a:    490a        .I      LDR      r1,[pc,#40] ; [0x1984] = 0x200001f8
        0x0000195c:    4640        @F      MOV      r0,r8
        0x0000195e:    f000febd    ....    BL       UART_Write ; 0x26dc
        0x00001962:    7026        &p      STRB     r6,[r4,#0]
        0x00001964:    2201        ."      MOVS     r2,#1
        0x00001966:    4907        .I      LDR      r1,[pc,#28] ; [0x1984] = 0x200001f8
        0x00001968:    4640        @F      MOV      r0,r8
        0x0000196a:    f000feb7    ....    BL       UART_Write ; 0x26dc
        0x0000196e:    2203        ."      MOVS     r2,#3
        0x00001970:    4905        .I      LDR      r1,[pc,#20] ; [0x1988] = 0x2000002c
        0x00001972:    4640        @F      MOV      r0,r8
        0x00001974:    f000feb2    ....    BL       UART_Write ; 0x26dc
        0x00001978:    4904        .I      LDR      r1,[pc,#16] ; [0x198c] = 0x200005d6
        0x0000197a:    2209        ."      MOVS     r2,#9
        0x0000197c:    391b        .9      SUBS     r1,r1,#0x1b
        0x0000197e:    4640        @F      MOV      r0,r8
        0x00001980:    e008        ..      B        0x1994 ; print_page_weld_record + 962
    $d
        0x00001982:    0000        ..      DCW    0
        0x00001984:    200001f8    ...     DCD    536871416
        0x00001988:    2000002c    ,..     DCD    536870956
        0x0000198c:    200005d6    ...     DCD    536872406
        0x00001990:    40071000    ...@    DCD    1074204672
    $t
        0x00001994:    f000fea2    ....    BL       UART_Write ; 0x26dc
        0x00001998:    f7feff19    ....    BL       read_absolute_hold ; 0x7ce
        0x0000199c:    f7fffbdc    ....    BL       binary_to_bcd_array ; 0x1158
        0x000019a0:    2203        ."      MOVS     r2,#3
        0x000019a2:    49fe        .I      LDR      r1,[pc,#1016] ; [0x1d9c] = 0x20000208
        0x000019a4:    4640        @F      MOV      r0,r8
        0x000019a6:    f000fe99    ....    BL       UART_Write ; 0x26dc
        0x000019aa:    49fc        .I      LDR      r1,[pc,#1008] ; [0x1d9c] = 0x20000208
        0x000019ac:    7027        'p      STRB     r7,[r4,#0]
        0x000019ae:    2201        ."      MOVS     r2,#1
        0x000019b0:    3910        .9      SUBS     r1,r1,#0x10
        0x000019b2:    4640        @F      MOV      r0,r8
        0x000019b4:    f000fe92    ....    BL       UART_Write ; 0x26dc
        0x000019b8:    78e8        .x      LDRB     r0,[r5,#3]
        0x000019ba:    49f8        .I      LDR      r1,[pc,#992] ; [0x1d9c] = 0x20000208
        0x000019bc:    7020         p      STRB     r0,[r4,#0]
        0x000019be:    2201        ."      MOVS     r2,#1
        0x000019c0:    3910        .9      SUBS     r1,r1,#0x10
        0x000019c2:    4640        @F      MOV      r0,r8
        0x000019c4:    f000fe8a    ....    BL       UART_Write ; 0x26dc
        0x000019c8:    7928        (y      LDRB     r0,[r5,#4]
        0x000019ca:    49f4        .I      LDR      r1,[pc,#976] ; [0x1d9c] = 0x20000208
        0x000019cc:    7020         p      STRB     r0,[r4,#0]
        0x000019ce:    2201        ."      MOVS     r2,#1
        0x000019d0:    3910        .9      SUBS     r1,r1,#0x10
        0x000019d2:    4640        @F      MOV      r0,r8
        0x000019d4:    f000fe82    ....    BL       UART_Write ; 0x26dc
        0x000019d8:    49f0        .I      LDR      r1,[pc,#960] ; [0x1d9c] = 0x20000208
        0x000019da:    7026        &p      STRB     r6,[r4,#0]
        0x000019dc:    2201        ."      MOVS     r2,#1
        0x000019de:    3910        .9      SUBS     r1,r1,#0x10
        0x000019e0:    4640        @F      MOV      r0,r8
        0x000019e2:    f000fe7b    ..{.    BL       UART_Write ; 0x26dc
        0x000019e6:    2203        ."      MOVS     r2,#3
        0x000019e8:    49ed        .I      LDR      r1,[pc,#948] ; [0x1da0] = 0x2000002c
        0x000019ea:    4640        @F      MOV      r0,r8
        0x000019ec:    f000fe76    ..v.    BL       UART_Write ; 0x26dc
        0x000019f0:    2209        ."      MOVS     r2,#9
        0x000019f2:    49ec        .I      LDR      r1,[pc,#944] ; [0x1da4] = 0x200005a9
        0x000019f4:    4640        @F      MOV      r0,r8
        0x000019f6:    f000fe71    ..q.    BL       UART_Write ; 0x26dc
        0x000019fa:    f7fefef1    ....    BL       read_distance_travelled ; 0x7e0
        0x000019fe:    f7fffbab    ....    BL       binary_to_bcd_array ; 0x1158
        0x00001a02:    2203        ."      MOVS     r2,#3
        0x00001a04:    49e5        .I      LDR      r1,[pc,#916] ; [0x1d9c] = 0x20000208
        0x00001a06:    4640        @F      MOV      r0,r8
        0x00001a08:    f000fe68    ..h.    BL       UART_Write ; 0x26dc
        0x00001a0c:    49e3        .I      LDR      r1,[pc,#908] ; [0x1d9c] = 0x20000208
        0x00001a0e:    7027        'p      STRB     r7,[r4,#0]
        0x00001a10:    2201        ."      MOVS     r2,#1
        0x00001a12:    3910        .9      SUBS     r1,r1,#0x10
        0x00001a14:    4640        @F      MOV      r0,r8
        0x00001a16:    f000fe61    ..a.    BL       UART_Write ; 0x26dc
        0x00001a1a:    78e8        .x      LDRB     r0,[r5,#3]
        0x00001a1c:    49df        .I      LDR      r1,[pc,#892] ; [0x1d9c] = 0x20000208
        0x00001a1e:    7020         p      STRB     r0,[r4,#0]
        0x00001a20:    2201        ."      MOVS     r2,#1
        0x00001a22:    3910        .9      SUBS     r1,r1,#0x10
        0x00001a24:    4640        @F      MOV      r0,r8
        0x00001a26:    f000fe59    ..Y.    BL       UART_Write ; 0x26dc
        0x00001a2a:    7928        (y      LDRB     r0,[r5,#4]
        0x00001a2c:    49db        .I      LDR      r1,[pc,#876] ; [0x1d9c] = 0x20000208
        0x00001a2e:    7020         p      STRB     r0,[r4,#0]
        0x00001a30:    2201        ."      MOVS     r2,#1
        0x00001a32:    3910        .9      SUBS     r1,r1,#0x10
        0x00001a34:    4640        @F      MOV      r0,r8
        0x00001a36:    f000fe51    ..Q.    BL       UART_Write ; 0x26dc
        0x00001a3a:    49d8        .I      LDR      r1,[pc,#864] ; [0x1d9c] = 0x20000208
        0x00001a3c:    7026        &p      STRB     r6,[r4,#0]
        0x00001a3e:    2201        ."      MOVS     r2,#1
        0x00001a40:    3910        .9      SUBS     r1,r1,#0x10
        0x00001a42:    4640        @F      MOV      r0,r8
        0x00001a44:    f000fe4a    ..J.    BL       UART_Write ; 0x26dc
        0x00001a48:    2203        ."      MOVS     r2,#3
        0x00001a4a:    49d5        .I      LDR      r1,[pc,#852] ; [0x1da0] = 0x2000002c
        0x00001a4c:    4640        @F      MOV      r0,r8
        0x00001a4e:    f000fe45    ..E.    BL       UART_Write ; 0x26dc
        0x00001a52:    49d4        .I      LDR      r1,[pc,#848] ; [0x1da4] = 0x200005a9
        0x00001a54:    2209        ."      MOVS     r2,#9
        0x00001a56:    311b        .1      ADDS     r1,r1,#0x1b
        0x00001a58:    4640        @F      MOV      r0,r8
        0x00001a5a:    f000fe3f    ..?.    BL       UART_Write ; 0x26dc
        0x00001a5e:    f7fefec8    ....    BL       read_collapse_hold ; 0x7f2
        0x00001a62:    f7fffb79    ..y.    BL       binary_to_bcd_array ; 0x1158
        0x00001a66:    2203        ."      MOVS     r2,#3
        0x00001a68:    49cc        .I      LDR      r1,[pc,#816] ; [0x1d9c] = 0x20000208
        0x00001a6a:    4640        @F      MOV      r0,r8
        0x00001a6c:    f000fe36    ..6.    BL       UART_Write ; 0x26dc
        0x00001a70:    49ca        .I      LDR      r1,[pc,#808] ; [0x1d9c] = 0x20000208
        0x00001a72:    7027        'p      STRB     r7,[r4,#0]
        0x00001a74:    2201        ."      MOVS     r2,#1
        0x00001a76:    3910        .9      SUBS     r1,r1,#0x10
        0x00001a78:    4640        @F      MOV      r0,r8
        0x00001a7a:    f000fe2f    ../.    BL       UART_Write ; 0x26dc
        0x00001a7e:    78e8        .x      LDRB     r0,[r5,#3]
        0x00001a80:    49c6        .I      LDR      r1,[pc,#792] ; [0x1d9c] = 0x20000208
        0x00001a82:    7020         p      STRB     r0,[r4,#0]
        0x00001a84:    2201        ."      MOVS     r2,#1
        0x00001a86:    3910        .9      SUBS     r1,r1,#0x10
        0x00001a88:    4640        @F      MOV      r0,r8
        0x00001a8a:    f000fe27    ..'.    BL       UART_Write ; 0x26dc
        0x00001a8e:    7928        (y      LDRB     r0,[r5,#4]
        0x00001a90:    49c2        .I      LDR      r1,[pc,#776] ; [0x1d9c] = 0x20000208
        0x00001a92:    7020         p      STRB     r0,[r4,#0]
        0x00001a94:    2201        ."      MOVS     r2,#1
        0x00001a96:    3910        .9      SUBS     r1,r1,#0x10
        0x00001a98:    4640        @F      MOV      r0,r8
        0x00001a9a:    f000fe1f    ....    BL       UART_Write ; 0x26dc
        0x00001a9e:    49bf        .I      LDR      r1,[pc,#764] ; [0x1d9c] = 0x20000208
        0x00001aa0:    7026        &p      STRB     r6,[r4,#0]
        0x00001aa2:    2201        ."      MOVS     r2,#1
        0x00001aa4:    3910        .9      SUBS     r1,r1,#0x10
        0x00001aa6:    4640        @F      MOV      r0,r8
        0x00001aa8:    f000fe18    ....    BL       UART_Write ; 0x26dc
        0x00001aac:    2203        ."      MOVS     r2,#3
        0x00001aae:    49bc        .I      LDR      r1,[pc,#752] ; [0x1da0] = 0x2000002c
        0x00001ab0:    4640        @F      MOV      r0,r8
        0x00001ab2:    f000fe13    ....    BL       UART_Write ; 0x26dc
        0x00001ab6:    49b9        .I      LDR      r1,[pc,#740] ; [0x1d9c] = 0x20000208
        0x00001ab8:    2207        ."      MOVS     r2,#7
        0x00001aba:    3144        D1      ADDS     r1,r1,#0x44
        0x00001abc:    4640        @F      MOV      r0,r8
        0x00001abe:    f000fe0d    ....    BL       UART_Write ; 0x26dc
        0x00001ac2:    f7fefe9f    ....    BL       read_total_time_display ; 0x804
        0x00001ac6:    f7fffb47    ..G.    BL       binary_to_bcd_array ; 0x1158
        0x00001aca:    2205        ."      MOVS     r2,#5
        0x00001acc:    49b3        .I      LDR      r1,[pc,#716] ; [0x1d9c] = 0x20000208
        0x00001ace:    4640        @F      MOV      r0,r8
        0x00001ad0:    f000fe04    ....    BL       UART_Write ; 0x26dc
        0x00001ad4:    4640        @F      MOV      r0,r8
        0x00001ad6:    e8bd41f0    ...A    POP      {r4-r8,lr}
        0x00001ada:    2203        ."      MOVS     r2,#3
        0x00001adc:    49b0        .I      LDR      r1,[pc,#704] ; [0x1da0] = 0x2000002c
        0x00001ade:    f000bdfd    ....    B.W      UART_Write ; 0x26dc
        0x00001ae2:    2030        0       MOVS     r0,#0x30
        0x00001ae4:    e5e8        ..      B        0x16b8 ; print_page_weld_record + 230
    print_page_head_test
        0x00001ae6:    b510        ..      PUSH     {r4,lr}
        0x00001ae8:    49ae        .I      LDR      r1,[pc,#696] ; [0x1da4] = 0x200005a9
        0x00001aea:    4caf        .L      LDR      r4,[pc,#700] ; [0x1da8] = 0x40071000
        0x00001aec:    220c        ."      MOVS     r2,#0xc
        0x00001aee:    3136        61      ADDS     r1,r1,#0x36
        0x00001af0:    4620         F      MOV      r0,r4
        0x00001af2:    f000fdf3    ....    BL       UART_Write ; 0x26dc
        0x00001af6:    f7fefcfc    ....    BL       read_amplitude_set_display ; 0x4f2
        0x00001afa:    f7fffb2d    ..-.    BL       binary_to_bcd_array ; 0x1158
        0x00001afe:    2205        ."      MOVS     r2,#5
        0x00001b00:    49a6        .I      LDR      r1,[pc,#664] ; [0x1d9c] = 0x20000208
        0x00001b02:    4620         F      MOV      r0,r4
        0x00001b04:    f000fdea    ....    BL       UART_Write ; 0x26dc
        0x00001b08:    2203        ."      MOVS     r2,#3
        0x00001b0a:    49a5        .I      LDR      r1,[pc,#660] ; [0x1da0] = 0x2000002c
        0x00001b0c:    4620         F      MOV      r0,r4
        0x00001b0e:    f000fde5    ....    BL       UART_Write ; 0x26dc
        0x00001b12:    49a2        .I      LDR      r1,[pc,#648] ; [0x1d9c] = 0x20000208
        0x00001b14:    2207        ."      MOVS     r2,#7
        0x00001b16:    3159        Y1      ADDS     r1,r1,#0x59
        0x00001b18:    4620         F      MOV      r0,r4
        0x00001b1a:    f000fddf    ....    BL       UART_Write ; 0x26dc
        0x00001b1e:    f7fefe91    ....    BL       read_freq_display ; 0x844
        0x00001b22:    f7fffb19    ....    BL       binary_to_bcd_array ; 0x1158
        0x00001b26:    2205        ."      MOVS     r2,#5
        0x00001b28:    499c        .I      LDR      r1,[pc,#624] ; [0x1d9c] = 0x20000208
        0x00001b2a:    4620         F      MOV      r0,r4
        0x00001b2c:    f000fdd6    ....    BL       UART_Write ; 0x26dc
        0x00001b30:    2203        ."      MOVS     r2,#3
        0x00001b32:    499b        .I      LDR      r1,[pc,#620] ; [0x1da0] = 0x2000002c
        0x00001b34:    4620         F      MOV      r0,r4
        0x00001b36:    f000fdd1    ....    BL       UART_Write ; 0x26dc
        0x00001b3a:    4998        .I      LDR      r1,[pc,#608] ; [0x1d9c] = 0x20000208
        0x00001b3c:    2207        ."      MOVS     r2,#7
        0x00001b3e:    3152        R1      ADDS     r1,r1,#0x52
        0x00001b40:    4620         F      MOV      r0,r4
        0x00001b42:    f000fdcb    ....    BL       UART_Write ; 0x26dc
        0x00001b46:    f7fefe69    ..i.    BL       read_power_read_display ; 0x81c
        0x00001b4a:    f7fffb05    ....    BL       binary_to_bcd_array ; 0x1158
        0x00001b4e:    2205        ."      MOVS     r2,#5
        0x00001b50:    4992        .I      LDR      r1,[pc,#584] ; [0x1d9c] = 0x20000208
        0x00001b52:    4620         F      MOV      r0,r4
        0x00001b54:    f000fdc2    ....    BL       UART_Write ; 0x26dc
        0x00001b58:    4620         F      MOV      r0,r4
        0x00001b5a:    e8bd4010    ...@    POP      {r4,lr}
        0x00001b5e:    2203        ."      MOVS     r2,#3
        0x00001b60:    498f        .I      LDR      r1,[pc,#572] ; [0x1da0] = 0x2000002c
        0x00001b62:    f000bdbb    ....    B.W      UART_Write ; 0x26dc
    print_page_early_after_trigger
        0x00001b66:    e92d41f0    -..A    PUSH     {r4-r8,lr}
        0x00001b6a:    4890        .H      LDR      r0,[pc,#576] ; [0x1dac] = 0x2000003d
        0x00001b6c:    4c8b        .L      LDR      r4,[pc,#556] ; [0x1d9c] = 0x20000208
        0x00001b6e:    4b8e        .K      LDR      r3,[pc,#568] ; [0x1da8] = 0x40071000
        0x00001b70:    7800        .x      LDRB     r0,[r0,#0]
        0x00001b72:    3c10        .<      SUBS     r4,r4,#0x10
        0x00001b74:    2631        1&      MOVS     r6,#0x31
        0x00001b76:    2730        0'      MOVS     r7,#0x30
        0x00001b78:    250a        .%      MOVS     r5,#0xa
        0x00001b7a:    2805        .(      CMP      r0,#5
        0x00001b7c:    f04f0211    O...    MOV      r2,#0x11
        0x00001b80:    f20431f3    ...1    ADD      r1,r4,#0x3f3
        0x00001b84:    4698        .F      MOV      r8,r3
        0x00001b86:    4618        .F      MOV      r0,r3
        0x00001b88:    d058        X.      BEQ      0x1c3c ; print_page_early_after_trigger + 214
        0x00001b8a:    f000fda7    ....    BL       UART_Write ; 0x26dc
        0x00001b8e:    f7fefd76    ..v.    BL       read_mode_after_stage_display ; 0x67e
        0x00001b92:    2805        .(      CMP      r0,#5
        0x00001b94:    d07e        ~.      BEQ      0x1c94 ; print_page_early_after_trigger + 302
        0x00001b96:    7027        'p      STRB     r7,[r4,#0]
        0x00001b98:    4980        .I      LDR      r1,[pc,#512] ; [0x1d9c] = 0x20000208
        0x00001b9a:    2201        ."      MOVS     r2,#1
        0x00001b9c:    3910        .9      SUBS     r1,r1,#0x10
        0x00001b9e:    4644        DF      MOV      r4,r8
        0x00001ba0:    4640        @F      MOV      r0,r8
        0x00001ba2:    f000fd9b    ....    BL       UART_Write ; 0x26dc
        0x00001ba6:    2203        ."      MOVS     r2,#3
        0x00001ba8:    497d        }I      LDR      r1,[pc,#500] ; [0x1da0] = 0x2000002c
        0x00001baa:    4620         F      MOV      r0,r4
        0x00001bac:    f000fd96    ....    BL       UART_Write ; 0x26dc
        0x00001bb0:    497c        |I      LDR      r1,[pc,#496] ; [0x1da4] = 0x200005a9
        0x00001bb2:    220a        ."      MOVS     r2,#0xa
        0x00001bb4:    3153        S1      ADDS     r1,r1,#0x53
        0x00001bb6:    4620         F      MOV      r0,r4
        0x00001bb8:    f000fd90    ....    BL       UART_Write ; 0x26dc
        0x00001bbc:    f7fefd5f    .._.    BL       read_mode_after_stage_display ; 0x67e
        0x00001bc0:    2805        .(      CMP      r0,#5
        0x00001bc2:    d07b        {.      BEQ      0x1cbc ; print_page_early_after_trigger + 342
        0x00001bc4:    f7fefd5f    .._.    BL       read_time_after_trigger_display ; 0x686
        0x00001bc8:    fbb0f0f5    ....    UDIV     r0,r0,r5
        0x00001bcc:    f7fffac4    ....    BL       binary_to_bcd_array ; 0x1158
        0x00001bd0:    2205        ."      MOVS     r2,#5
        0x00001bd2:    4972        rI      LDR      r1,[pc,#456] ; [0x1d9c] = 0x20000208
        0x00001bd4:    4620         F      MOV      r0,r4
        0x00001bd6:    f000fd81    ....    BL       UART_Write ; 0x26dc
        0x00001bda:    2203        ."      MOVS     r2,#3
        0x00001bdc:    4970        pI      LDR      r1,[pc,#448] ; [0x1da0] = 0x2000002c
        0x00001bde:    4620         F      MOV      r0,r4
        0x00001be0:    f000fd7c    ..|.    BL       UART_Write ; 0x26dc
        0x00001be4:    496f        oI      LDR      r1,[pc,#444] ; [0x1da4] = 0x200005a9
        0x00001be6:    220f        ."      MOVS     r2,#0xf
        0x00001be8:    315d        ]1      ADDS     r1,r1,#0x5d
        0x00001bea:    4620         F      MOV      r0,r4
        0x00001bec:    f000fd76    ..v.    BL       UART_Write ; 0x26dc
        0x00001bf0:    f7fefd41    ..A.    BL       read_power_after_stage_display ; 0x676
        0x00001bf4:    f7fffab0    ....    BL       binary_to_bcd_array ; 0x1158
        0x00001bf8:    2205        ."      MOVS     r2,#5
        0x00001bfa:    4968        hI      LDR      r1,[pc,#416] ; [0x1d9c] = 0x20000208
        0x00001bfc:    4620         F      MOV      r0,r4
        0x00001bfe:    f000fd6d    ..m.    BL       UART_Write ; 0x26dc
        0x00001c02:    2203        ."      MOVS     r2,#3
        0x00001c04:    4966        fI      LDR      r1,[pc,#408] ; [0x1da0] = 0x2000002c
        0x00001c06:    4620         F      MOV      r0,r4
        0x00001c08:    f000fd68    ..h.    BL       UART_Write ; 0x26dc
        0x00001c0c:    4965        eI      LDR      r1,[pc,#404] ; [0x1da4] = 0x200005a9
        0x00001c0e:    2212        ."      MOVS     r2,#0x12
        0x00001c10:    316c        l1      ADDS     r1,r1,#0x6c
        0x00001c12:    4620         F      MOV      r0,r4
        0x00001c14:    f000fd62    ..b.    BL       UART_Write ; 0x26dc
        0x00001c18:    f7fefd47    ..G.    BL       read_time_on_after_stage_display ; 0x6aa
        0x00001c1c:    fbb0f0f5    ....    UDIV     r0,r0,r5
        0x00001c20:    f7fffa9a    ....    BL       binary_to_bcd_array ; 0x1158
        0x00001c24:    2205        ."      MOVS     r2,#5
        0x00001c26:    495d        ]I      LDR      r1,[pc,#372] ; [0x1d9c] = 0x20000208
        0x00001c28:    4620         F      MOV      r0,r4
        0x00001c2a:    f000fd57    ..W.    BL       UART_Write ; 0x26dc
        0x00001c2e:    4620         F      MOV      r0,r4
        0x00001c30:    e8bd41f0    ...A    POP      {r4-r8,lr}
        0x00001c34:    2203        ."      MOVS     r2,#3
        0x00001c36:    495a        ZI      LDR      r1,[pc,#360] ; [0x1da0] = 0x2000002c
        0x00001c38:    f000bd50    ..P.    B.W      UART_Write ; 0x26dc
        0x00001c3c:    f000fd4e    ..N.    BL       UART_Write ; 0x26dc
        0x00001c40:    f7fefcf3    ....    BL       read_mode_early_stage_display ; 0x62a
        0x00001c44:    2802        .(      CMP      r0,#2
        0x00001c46:    d032        2.      BEQ      0x1cae ; print_page_early_after_trigger + 328
        0x00001c48:    7027        'p      STRB     r7,[r4,#0]
        0x00001c4a:    4954        TI      LDR      r1,[pc,#336] ; [0x1d9c] = 0x20000208
        0x00001c4c:    2201        ."      MOVS     r2,#1
        0x00001c4e:    3910        .9      SUBS     r1,r1,#0x10
        0x00001c50:    4644        DF      MOV      r4,r8
        0x00001c52:    4640        @F      MOV      r0,r8
        0x00001c54:    f000fd42    ..B.    BL       UART_Write ; 0x26dc
        0x00001c58:    2203        ."      MOVS     r2,#3
        0x00001c5a:    4951        QI      LDR      r1,[pc,#324] ; [0x1da0] = 0x2000002c
        0x00001c5c:    4620         F      MOV      r0,r4
        0x00001c5e:    f000fd3d    ..=.    BL       UART_Write ; 0x26dc
        0x00001c62:    4950        PI      LDR      r1,[pc,#320] ; [0x1da4] = 0x200005a9
        0x00001c64:    220a        ."      MOVS     r2,#0xa
        0x00001c66:    3153        S1      ADDS     r1,r1,#0x53
        0x00001c68:    4620         F      MOV      r0,r4
        0x00001c6a:    f000fd37    ..7.    BL       UART_Write ; 0x26dc
        0x00001c6e:    f7fefcdc    ....    BL       read_mode_early_stage_display ; 0x62a
        0x00001c72:    2802        .(      CMP      r0,#2
        0x00001c74:    d01d        ..      BEQ      0x1cb2 ; print_page_early_after_trigger + 332
        0x00001c76:    f7fefcdc    ....    BL       read_time_early_trigger_display ; 0x632
        0x00001c7a:    fbb0f0f5    ....    UDIV     r0,r0,r5
        0x00001c7e:    f7fffa6b    ..k.    BL       binary_to_bcd_array ; 0x1158
        0x00001c82:    2205        ."      MOVS     r2,#5
        0x00001c84:    4945        EI      LDR      r1,[pc,#276] ; [0x1d9c] = 0x20000208
        0x00001c86:    4620         F      MOV      r0,r4
        0x00001c88:    f000fd28    ..(.    BL       UART_Write ; 0x26dc
        0x00001c8c:    2203        ."      MOVS     r2,#3
        0x00001c8e:    4944        DI      LDR      r1,[pc,#272] ; [0x1da0] = 0x2000002c
        0x00001c90:    4620         F      MOV      r0,r4
        0x00001c92:    e001        ..      B        0x1c98 ; print_page_early_after_trigger + 306
        0x00001c94:    e010        ..      B        0x1cb8 ; print_page_early_after_trigger + 338
        0x00001c96:    e011        ..      B        0x1cbc ; print_page_early_after_trigger + 342
        0x00001c98:    f000fd20    .. .    BL       UART_Write ; 0x26dc
        0x00001c9c:    4941        AI      LDR      r1,[pc,#260] ; [0x1da4] = 0x200005a9
        0x00001c9e:    220f        ."      MOVS     r2,#0xf
        0x00001ca0:    315d        ]1      ADDS     r1,r1,#0x5d
        0x00001ca2:    4620         F      MOV      r0,r4
        0x00001ca4:    f000fd1a    ....    BL       UART_Write ; 0x26dc
        0x00001ca8:    f7fefcbb    ....    BL       read_power_early_stage_display ; 0x622
        0x00001cac:    e7b8        ..      B        0x1c20 ; print_page_early_after_trigger + 186
        0x00001cae:    7026        &p      STRB     r6,[r4,#0]
        0x00001cb0:    e7cb        ..      B        0x1c4a ; print_page_early_after_trigger + 228
        0x00001cb2:    f7fefcc7    ....    BL       read_distance_early_trigger_display ; 0x644
        0x00001cb6:    e7e2        ..      B        0x1c7e ; print_page_early_after_trigger + 280
        0x00001cb8:    7026        &p      STRB     r6,[r4,#0]
        0x00001cba:    e76d        m.      B        0x1b98 ; print_page_early_after_trigger + 50
        0x00001cbc:    f7fefcec    ....    BL       read_distance_after_trigger_display ; 0x698
        0x00001cc0:    e784        ..      B        0x1bcc ; print_page_early_after_trigger + 102
    print_page_head_diagnosis
        0x00001cc2:    b510        ..      PUSH     {r4,lr}
        0x00001cc4:    f7fefdcc    ....    BL       read_head_sweep_display ; 0x860
        0x00001cc8:    4c37        7L      LDR      r4,[pc,#220] ; [0x1da8] = 0x40071000
        0x00001cca:    2801        .(      CMP      r0,#1
        0x00001ccc:    d02f        /.      BEQ      0x1d2e ; print_page_head_diagnosis + 108
        0x00001cce:    4935        5I      LDR      r1,[pc,#212] ; [0x1da4] = 0x200005a9
        0x00001cd0:    2218        ."      MOVS     r2,#0x18
        0x00001cd2:    317e        ~1      ADDS     r1,r1,#0x7e
        0x00001cd4:    4620         F      MOV      r0,r4
        0x00001cd6:    f000fd01    ....    BL       UART_Write ; 0x26dc
        0x00001cda:    4930        0I      LDR      r1,[pc,#192] ; [0x1d9c] = 0x20000208
        0x00001cdc:    2207        ."      MOVS     r2,#7
        0x00001cde:    3167        g1      ADDS     r1,r1,#0x67
        0x00001ce0:    4620         F      MOV      r0,r4
        0x00001ce2:    f000fcfb    ....    BL       UART_Write ; 0x26dc
        0x00001ce6:    f7fefdc1    ....    BL       read_resonance_frequency ; 0x86c
        0x00001cea:    f7fffa35    ..5.    BL       binary_to_bcd_array ; 0x1158
        0x00001cee:    2205        ."      MOVS     r2,#5
        0x00001cf0:    492a        *I      LDR      r1,[pc,#168] ; [0x1d9c] = 0x20000208
        0x00001cf2:    4620         F      MOV      r0,r4
        0x00001cf4:    f000fcf2    ....    BL       UART_Write ; 0x26dc
        0x00001cf8:    2203        ."      MOVS     r2,#3
        0x00001cfa:    4929        )I      LDR      r1,[pc,#164] ; [0x1da0] = 0x2000002c
        0x00001cfc:    4620         F      MOV      r0,r4
        0x00001cfe:    f000fced    ....    BL       UART_Write ; 0x26dc
        0x00001d02:    4926        &I      LDR      r1,[pc,#152] ; [0x1d9c] = 0x20000208
        0x00001d04:    2207        ."      MOVS     r2,#7
        0x00001d06:    3160        `1      ADDS     r1,r1,#0x60
        0x00001d08:    4620         F      MOV      r0,r4
        0x00001d0a:    f000fce7    ....    BL       UART_Write ; 0x26dc
        0x00001d0e:    f7fefdaa    ....    BL       read_anti_resonance_frequency ; 0x866
        0x00001d12:    f7fffa21    ..!.    BL       binary_to_bcd_array ; 0x1158
        0x00001d16:    2205        ."      MOVS     r2,#5
        0x00001d18:    4920         I      LDR      r1,[pc,#128] ; [0x1d9c] = 0x20000208
        0x00001d1a:    4620         F      MOV      r0,r4
        0x00001d1c:    f000fcde    ....    BL       UART_Write ; 0x26dc
        0x00001d20:    4620         F      MOV      r0,r4
        0x00001d22:    e8bd4010    ...@    POP      {r4,lr}
        0x00001d26:    2203        ."      MOVS     r2,#3
        0x00001d28:    491d        .I      LDR      r1,[pc,#116] ; [0x1da0] = 0x2000002c
        0x00001d2a:    f000bcd7    ....    B.W      UART_Write ; 0x26dc
        0x00001d2e:    491d        .I      LDR      r1,[pc,#116] ; [0x1da4] = 0x200005a9
        0x00001d30:    221a        ."      MOVS     r2,#0x1a
        0x00001d32:    3196        .1      ADDS     r1,r1,#0x96
        0x00001d34:    e7ce        ..      B        0x1cd4 ; print_page_head_diagnosis + 18
    display_to_mcu
        0x00001d36:    e92d41f0    -..A    PUSH     {r4-r8,lr}
        0x00001d3a:    4c1d        .L      LDR      r4,[pc,#116] ; [0x1db0] = 0x200001f0
        0x00001d3c:    f04f0800    O...    MOV      r8,#0
        0x00001d40:    4620         F      MOV      r0,r4
        0x00001d42:    78a7        .x      LDRB     r7,[r4,#2]
        0x00001d44:    78c0        .x      LDRB     r0,[r0,#3]
        0x00001d46:    2fff        ./      CMP      r7,#0xff
        0x00001d48:    d004        ..      BEQ      0x1d54 ; display_to_mcu + 30
        0x00001d4a:    28ff        .(      CMP      r0,#0xff
        0x00001d4c:    d002        ..      BEQ      0x1d54 ; display_to_mcu + 30
        0x00001d4e:    7920         y      LDRB     r0,[r4,#4]
        0x00001d50:    28ff        .(      CMP      r0,#0xff
        0x00001d52:    d167        g.      BNE      0x1e24 ; display_to_mcu + 238
        0x00001d54:    4816        .H      LDR      r0,[pc,#88] ; [0x1db0] = 0x200001f0
        0x00001d56:    7821        !x      LDRB     r1,[r4,#0]
        0x00001d58:    f8b03001    ...0    LDRH     r3,[r0,#1]
        0x00001d5c:    f890c002    ....    LDRB     r12,[r0,#2]
        0x00001d60:    eb030583    ....    ADD      r5,r3,r3,LSL #2
        0x00001d64:    00ee        ..      LSLS     r6,r5,#3
        0x00001d66:    78c5        .x      LDRB     r5,[r0,#3]
        0x00001d68:    7840        @x      LDRB     r0,[r0,#1]
        0x00001d6a:    042d        -.      LSLS     r5,r5,#16
        0x00001d6c:    eb030283    ....    ADD      r2,r3,r3,LSL #2
        0x00001d70:    ea45250c    E..%    ORR      r5,r5,r12,LSL #8
        0x00001d74:    0052        R.      LSLS     r2,r2,#1
        0x00001d76:    4305        .C      ORRS     r5,r5,r0
        0x00001d78:    29d1        .)      CMP      r1,#0xd1
        0x00001d7a:    d07d        }.      BEQ      0x1e78 ; display_to_mcu + 322
        0x00001d7c:    dc2b        +.      BGT      0x1dd6 ; display_to_mcu + 160
        0x00001d7e:    29c7        .)      CMP      r1,#0xc7
        0x00001d80:    d07b        {.      BEQ      0x1e7a ; display_to_mcu + 324
        0x00001d82:    dc1e        ..      BGT      0x1dc2 ; display_to_mcu + 140
        0x00001d84:    29c3        .)      CMP      r1,#0xc3
        0x00001d86:    d079        y.      BEQ      0x1e7c ; display_to_mcu + 326
        0x00001d88:    dc14        ..      BGT      0x1db4 ; display_to_mcu + 126
        0x00001d8a:    29aa        .)      CMP      r1,#0xaa
        0x00001d8c:    d056        V.      BEQ      0x1e3c ; display_to_mcu + 262
        0x00001d8e:    29c0        .)      CMP      r1,#0xc0
        0x00001d90:    d05a        Z.      BEQ      0x1e48 ; display_to_mcu + 274
        0x00001d92:    29c1        .)      CMP      r1,#0xc1
        0x00001d94:    d073        s.      BEQ      0x1e7e ; display_to_mcu + 328
        0x00001d96:    29c2        .)      CMP      r1,#0xc2
        0x00001d98:    d141        A.      BNE      0x1e1e ; display_to_mcu + 232
        0x00001d9a:    e058        X.      B        0x1e4e ; display_to_mcu + 280
    $d
        0x00001d9c:    20000208    ...     DCD    536871432
        0x00001da0:    2000002c    ,..     DCD    536870956
        0x00001da4:    200005a9    ...     DCD    536872361
        0x00001da8:    40071000    ...@    DCD    1074204672
        0x00001dac:    2000003d    =..     DCD    536870973
        0x00001db0:    200001f0    ...     DCD    536871408
    $t
        0x00001db4:    29c4        .)      CMP      r1,#0xc4
        0x00001db6:    d07d        }.      BEQ      0x1eb4 ; display_to_mcu + 382
        0x00001db8:    29c5        .)      CMP      r1,#0xc5
        0x00001dba:    d07c        |.      BEQ      0x1eb6 ; display_to_mcu + 384
        0x00001dbc:    29c6        .)      CMP      r1,#0xc6
        0x00001dbe:    d12e        ..      BNE      0x1e1e ; display_to_mcu + 232
        0x00001dc0:    e0a7        ..      B        0x1f12 ; display_to_mcu + 476
        0x00001dc2:    39c8        .9      SUBS     r1,r1,#0xc8
        0x00001dc4:    2909        .)      CMP      r1,#9
        0x00001dc6:    d22a        *.      BCS      0x1e1e ; display_to_mcu + 232
        0x00001dc8:    e8dff001    ....    TBB      [pc,r1]
    $d
        0x00001dcc:    29c0b7c4    ...)    DCD    700495812
        0x00001dd0:    bacacd29    )...    DCD    3133852969
        0x00001dd4:    00d1        ..      DCW    209
    $t
        0x00001dd6:    29e2        .)      CMP      r1,#0xe2
        0x00001dd8:    d06e        n.      BEQ      0x1eb8 ; display_to_mcu + 386
        0x00001dda:    dc10        ..      BGT      0x1dfe ; display_to_mcu + 200
        0x00001ddc:    29d5        .)      CMP      r1,#0xd5
        0x00001dde:    d06c        l.      BEQ      0x1eba ; display_to_mcu + 388
        0x00001de0:    dc06        ..      BGT      0x1df0 ; display_to_mcu + 186
        0x00001de2:    29d2        .)      CMP      r1,#0xd2
        0x00001de4:    d06a        j.      BEQ      0x1ebc ; display_to_mcu + 390
        0x00001de6:    29d3        .)      CMP      r1,#0xd3
        0x00001de8:    d069        i.      BEQ      0x1ebe ; display_to_mcu + 392
        0x00001dea:    29d4        .)      CMP      r1,#0xd4
        0x00001dec:    d117        ..      BNE      0x1e1e ; display_to_mcu + 232
        0x00001dee:    e0cd        ..      B        0x1f8c ; display_to_mcu + 598
        0x00001df0:    29d6        .)      CMP      r1,#0xd6
        0x00001df2:    d072        r.      BEQ      0x1eda ; display_to_mcu + 420
        0x00001df4:    29e0        .)      CMP      r1,#0xe0
        0x00001df6:    d071        q.      BEQ      0x1edc ; display_to_mcu + 422
        0x00001df8:    29e1        .)      CMP      r1,#0xe1
        0x00001dfa:    d110        ..      BNE      0x1e1e ; display_to_mcu + 232
        0x00001dfc:    e0d7        ..      B        0x1fae ; display_to_mcu + 632
        0x00001dfe:    29e6        .)      CMP      r1,#0xe6
        0x00001e00:    d06d        m.      BEQ      0x1ede ; display_to_mcu + 424
        0x00001e02:    dc06        ..      BGT      0x1e12 ; display_to_mcu + 220
        0x00001e04:    29e3        .)      CMP      r1,#0xe3
        0x00001e06:    d06b        k.      BEQ      0x1ee0 ; display_to_mcu + 426
        0x00001e08:    29e4        .)      CMP      r1,#0xe4
        0x00001e0a:    d06a        j.      BEQ      0x1ee2 ; display_to_mcu + 428
        0x00001e0c:    29e5        .)      CMP      r1,#0xe5
        0x00001e0e:    d106        ..      BNE      0x1e1e ; display_to_mcu + 232
        0x00001e10:    e0df        ..      B        0x1fd2 ; display_to_mcu + 668
        0x00001e12:    29e7        .)      CMP      r1,#0xe7
        0x00001e14:    d076        v.      BEQ      0x1f04 ; display_to_mcu + 462
        0x00001e16:    29f0        .)      CMP      r1,#0xf0
        0x00001e18:    d075        u.      BEQ      0x1f06 ; display_to_mcu + 464
        0x00001e1a:    29f1        .)      CMP      r1,#0xf1
        0x00001e1c:    d074        t.      BEQ      0x1f08 ; display_to_mcu + 466
        0x00001e1e:    498c        .I      LDR      r1,[pc,#560] ; [0x2050] = 0x200001f8
        0x00001e20:    f8c1800c    ....    STR      r8,[r1,#0xc]
        0x00001e24:    f8848000    ....    STRB     r8,[r4,#0]
        0x00001e28:    f8848001    ....    STRB     r8,[r4,#1]
        0x00001e2c:    f8848002    ....    STRB     r8,[r4,#2]
        0x00001e30:    f8848003    ....    STRB     r8,[r4,#3]
        0x00001e34:    f8848004    ....    STRB     r8,[r4,#4]
        0x00001e38:    e8bd81f0    ....    POP      {r4-r8,pc}
        0x00001e3c:    4985        .I      LDR      r1,[pc,#532] ; [0x2054] = 0x2000003d
        0x00001e3e:    7008        .p      STRB     r0,[r1,#0]
        0x00001e40:    2001        .       MOVS     r0,#1
        0x00001e42:    f7fefd22    ..".    BL       write_entered_main_page ; 0x88a
        0x00001e46:    e7ed        ..      B        0x1e24 ; display_to_mcu + 238
        0x00001e48:    f7fefb47    ..G.    BL       write_amplitude_set ; 0x4da
        0x00001e4c:    e7ea        ..      B        0x1e24 ; display_to_mcu + 238
        0x00001e4e:    f7fefb5d    ..].    BL       write_mode_set ; 0x50c
        0x00001e52:    7860        `x      LDRB     r0,[r4,#1]
        0x00001e54:    2801        .(      CMP      r0,#1
        0x00001e56:    d106        ..      BNE      0x1e66 ; display_to_mcu + 304
        0x00001e58:    f7fefba3    ....    BL       read_stage2_mode_address_display ; 0x5a2
        0x00001e5c:    2803        .(      CMP      r0,#3
        0x00001e5e:    d002        ..      BEQ      0x1e66 ; display_to_mcu + 304
        0x00001e60:    2000        .       MOVS     r0,#0
        0x00001e62:    f7fefb9a    ....    BL       write_stage2_mode_address_set ; 0x59a
        0x00001e66:    7860        `x      LDRB     r0,[r4,#1]
        0x00001e68:    2802        .(      CMP      r0,#2
        0x00001e6a:    d10b        ..      BNE      0x1e84 ; display_to_mcu + 334
        0x00001e6c:    f7fefb99    ....    BL       read_stage2_mode_address_display ; 0x5a2
        0x00001e70:    2804        .(      CMP      r0,#4
        0x00001e72:    d007        ..      BEQ      0x1e84 ; display_to_mcu + 334
        0x00001e74:    2000        .       MOVS     r0,#0
        0x00001e76:    e003        ..      B        0x1e80 ; display_to_mcu + 330
        0x00001e78:    e07d        }.      B        0x1f76 ; display_to_mcu + 576
        0x00001e7a:    e052        R.      B        0x1f22 ; display_to_mcu + 492
        0x00001e7c:    e032        2.      B        0x1ee4 ; display_to_mcu + 430
        0x00001e7e:    e058        X.      B        0x1f32 ; display_to_mcu + 508
        0x00001e80:    f7fefb8b    ....    BL       write_stage2_mode_address_set ; 0x59a
        0x00001e84:    7860        `x      LDRB     r0,[r4,#1]
        0x00001e86:    2803        .(      CMP      r0,#3
        0x00001e88:    d102        ..      BNE      0x1e90 ; display_to_mcu + 346
        0x00001e8a:    2000        .       MOVS     r0,#0
        0x00001e8c:    f7fefb85    ....    BL       write_stage2_mode_address_set ; 0x59a
        0x00001e90:    7860        `x      LDRB     r0,[r4,#1]
        0x00001e92:    2804        .(      CMP      r0,#4
        0x00001e94:    d106        ..      BNE      0x1ea4 ; display_to_mcu + 366
        0x00001e96:    f7fefb84    ....    BL       read_stage2_mode_address_display ; 0x5a2
        0x00001e9a:    2805        .(      CMP      r0,#5
        0x00001e9c:    d002        ..      BEQ      0x1ea4 ; display_to_mcu + 366
        0x00001e9e:    2000        .       MOVS     r0,#0
        0x00001ea0:    f7fefb7b    ..{.    BL       write_stage2_mode_address_set ; 0x59a
        0x00001ea4:    7860        `x      LDRB     r0,[r4,#1]
        0x00001ea6:    2805        .(      CMP      r0,#5
        0x00001ea8:    d10d        ..      BNE      0x1ec6 ; display_to_mcu + 400
        0x00001eaa:    f7fefb7a    ..z.    BL       read_stage2_mode_address_display ; 0x5a2
        0x00001eae:    2806        .(      CMP      r0,#6
        0x00001eb0:    d009        ..      BEQ      0x1ec6 ; display_to_mcu + 400
        0x00001eb2:    e005        ..      B        0x1ec0 ; display_to_mcu + 394
        0x00001eb4:    e01e        ..      B        0x1ef4 ; display_to_mcu + 446
        0x00001eb6:    e028        (.      B        0x1f0a ; display_to_mcu + 468
        0x00001eb8:    e07d        }.      B        0x1fb6 ; display_to_mcu + 640
        0x00001eba:    e06c        l.      B        0x1f96 ; display_to_mcu + 608
        0x00001ebc:    e05e        ^.      B        0x1f7c ; display_to_mcu + 582
        0x00001ebe:    e060        `.      B        0x1f82 ; display_to_mcu + 588
        0x00001ec0:    2000        .       MOVS     r0,#0
        0x00001ec2:    f7fefb6a    ..j.    BL       write_stage2_mode_address_set ; 0x59a
        0x00001ec6:    7860        `x      LDRB     r0,[r4,#1]
        0x00001ec8:    2806        .(      CMP      r0,#6
        0x00001eca:    d1ab        ..      BNE      0x1e24 ; display_to_mcu + 238
        0x00001ecc:    2000        .       MOVS     r0,#0
        0x00001ece:    f7fefb64    ..d.    BL       write_stage2_mode_address_set ; 0x59a
        0x00001ed2:    2000        .       MOVS     r0,#0
        0x00001ed4:    f7fefb0a    ....    BL       write_hold_time_set ; 0x4ec
        0x00001ed8:    e7a4        ..      B        0x1e24 ; display_to_mcu + 238
        0x00001eda:    e061        a.      B        0x1fa0 ; display_to_mcu + 618
        0x00001edc:    e087        ..      B        0x1fee ; display_to_mcu + 696
        0x00001ede:    e07f        ..      B        0x1fe0 ; display_to_mcu + 682
        0x00001ee0:    e070        p.      B        0x1fc4 ; display_to_mcu + 654
        0x00001ee2:    e072        r.      B        0x1fca ; display_to_mcu + 660
        0x00001ee4:    4610        .F      MOV      r0,r2
        0x00001ee6:    f7fefb1e    ....    BL       write_time_set_stage_one_set ; 0x526
        0x00001eea:    f7fefb5a    ..Z.    BL       read_stage2_mode_address_display ; 0x5a2
        0x00001eee:    2803        .(      CMP      r0,#3
        0x00001ef0:    d13f        ?.      BNE      0x1f72 ; display_to_mcu + 572
        0x00001ef2:    e797        ..      B        0x1e24 ; display_to_mcu + 238
        0x00001ef4:    4618        .F      MOV      r0,r3
        0x00001ef6:    f7fefb10    ....    BL       write_distance_relative_set ; 0x51a
        0x00001efa:    f7fefb52    ..R.    BL       read_stage2_mode_address_display ; 0x5a2
        0x00001efe:    2804        .(      CMP      r0,#4
        0x00001f00:    d137        7.      BNE      0x1f72 ; display_to_mcu + 572
        0x00001f02:    e78f        ..      B        0x1e24 ; display_to_mcu + 238
        0x00001f04:    e06f        o.      B        0x1fe6 ; display_to_mcu + 688
        0x00001f06:    e01e        ..      B        0x1f46 ; display_to_mcu + 528
        0x00001f08:    e089        ..      B        0x201e ; display_to_mcu + 744
        0x00001f0a:    4618        .F      MOV      r0,r3
        0x00001f0c:    f7fefb01    ....    BL       write_distance_absolute_set ; 0x512
        0x00001f10:    e788        ..      B        0x1e24 ; display_to_mcu + 238
        0x00001f12:    4630        0F      MOV      r0,r6
        0x00001f14:    f7fefb0a    ....    BL       write_power_stage_one_set ; 0x52c
        0x00001f18:    f7fefb43    ..C.    BL       read_stage2_mode_address_display ; 0x5a2
        0x00001f1c:    2805        .(      CMP      r0,#5
        0x00001f1e:    d128        (.      BNE      0x1f72 ; display_to_mcu + 572
        0x00001f20:    e780        ..      B        0x1e24 ; display_to_mcu + 238
        0x00001f22:    4628        (F      MOV      r0,r5
        0x00001f24:    f7fefafc    ....    BL       write_energy_set ; 0x520
        0x00001f28:    f7fefb3b    ..;.    BL       read_stage2_mode_address_display ; 0x5a2
        0x00001f2c:    2806        .(      CMP      r0,#6
        0x00001f2e:    d120         .      BNE      0x1f72 ; display_to_mcu + 572
        0x00001f30:    e778        x.      B        0x1e24 ; display_to_mcu + 238
        0x00001f32:    4610        .F      MOV      r0,r2
        0x00001f34:    f7fefafd    ....    BL       write_gnd_set ; 0x532
        0x00001f38:    e774        t.      B        0x1e24 ; display_to_mcu + 238
        0x00001f3a:    f7fefacb    ....    BL       write_amplitude_head_test_set ; 0x4d4
        0x00001f3e:    e771        q.      B        0x1e24 ; display_to_mcu + 238
        0x00001f40:    f7fefc8b    ....    BL       write_head_sweep_set ; 0x85a
        0x00001f44:    e76e        n.      B        0x1e24 ; display_to_mcu + 238
        0x00001f46:    f7fefc97    ....    BL       write_button_test ; 0x878
        0x00001f4a:    e76b        k.      B        0x1e24 ; display_to_mcu + 238
        0x00001f4c:    4618        .F      MOV      r0,r3
        0x00001f4e:    f7fefaca    ....    BL       write_force_set ; 0x4e6
        0x00001f52:    e767        g.      B        0x1e24 ; display_to_mcu + 238
        0x00001f54:    0239        9.      LSLS     r1,r7,#8
        0x00001f56:    eb000080    ....    ADD      r0,r0,r0,LSL #2
        0x00001f5a:    ea410040    A.@.    ORR      r0,r1,r0,LSL #1
        0x00001f5e:    e7b9        ..      B        0x1ed4 ; display_to_mcu + 414
        0x00001f60:    f7fefc90    ....    BL       write_head_up_set ; 0x884
        0x00001f64:    e75e        ^.      B        0x1e24 ; display_to_mcu + 238
        0x00001f66:    4610        .F      MOV      r0,r2
        0x00001f68:    f7fefaba    ....    BL       write_timeout_set ; 0x4e0
        0x00001f6c:    e75a        Z.      B        0x1e24 ; display_to_mcu + 238
        0x00001f6e:    2800        .(      CMP      r0,#0
        0x00001f70:    d1b2        ..      BNE      0x1ed8 ; display_to_mcu + 418
        0x00001f72:    2000        .       MOVS     r0,#0
        0x00001f74:    e018        ..      B        0x1fa8 ; display_to_mcu + 626
        0x00001f76:    f7fefafa    ....    BL       write_amplitudeA_set_stage2 ; 0x56e
        0x00001f7a:    e753        S.      B        0x1e24 ; display_to_mcu + 238
        0x00001f7c:    f7fefafa    ....    BL       write_amplitudeB_set_stage2 ; 0x574
        0x00001f80:    e750        P.      B        0x1e24 ; display_to_mcu + 238
        0x00001f82:    4610        .F      MOV      r0,r2
        0x00001f84:    f7fefb05    ....    BL       write_time_set_stage2 ; 0x592
        0x00001f88:    2003        .       MOVS     r0,#3
        0x00001f8a:    e00d        ..      B        0x1fa8 ; display_to_mcu + 626
        0x00001f8c:    4618        .F      MOV      r0,r3
        0x00001f8e:    f7fefaf4    ....    BL       write_distance_set_stage2 ; 0x57a
        0x00001f92:    2004        .       MOVS     r0,#4
        0x00001f94:    e008        ..      B        0x1fa8 ; display_to_mcu + 626
        0x00001f96:    4630        0F      MOV      r0,r6
        0x00001f98:    f7fefaf3    ....    BL       write_power_set_stage2 ; 0x582
        0x00001f9c:    2005        .       MOVS     r0,#5
        0x00001f9e:    e003        ..      B        0x1fa8 ; display_to_mcu + 626
        0x00001fa0:    4628        (F      MOV      r0,r5
        0x00001fa2:    f7fefaf2    ....    BL       write_energy_set_stage2 ; 0x58a
        0x00001fa6:    2006        .       MOVS     r0,#6
        0x00001fa8:    f7fefaf7    ....    BL       write_stage2_mode_address_set ; 0x59a
        0x00001fac:    e73a        :.      B        0x1e24 ; display_to_mcu + 238
        0x00001fae:    4610        .F      MOV      r0,r2
        0x00001fb0:    f7fefb31    ..1.    BL       write_time_early_trigger_set ; 0x616
        0x00001fb4:    e02b        +.      B        0x200e ; display_to_mcu + 728
        0x00001fb6:    4618        .F      MOV      r0,r3
        0x00001fb8:    f7fefb30    ..0.    BL       write_distance_early_trigger_set ; 0x61c
        0x00001fbc:    e029        ).      B        0x2012 ; display_to_mcu + 732
        0x00001fbe:    f7fefb26    ..&.    BL       write_mode_early_stage_set ; 0x60e
        0x00001fc2:    e72f        /.      B        0x1e24 ; display_to_mcu + 238
        0x00001fc4:    f7fefb20    .. .    BL       write_power_early_stage_set ; 0x608
        0x00001fc8:    e72c        ,.      B        0x1e24 ; display_to_mcu + 238
        0x00001fca:    4610        .F      MOV      r0,r2
        0x00001fcc:    f7fefb4a    ..J.    BL       write_time_after_trigger_set ; 0x664
        0x00001fd0:    e023        #.      B        0x201a ; display_to_mcu + 740
        0x00001fd2:    4618        .F      MOV      r0,r3
        0x00001fd4:    f7fefb49    ..I.    BL       write_distance_after_trigger_set ; 0x66a
        0x00001fd8:    e015        ..      B        0x2006 ; display_to_mcu + 720
        0x00001fda:    f7fefb3f    ..?.    BL       write_mode_after_stage_set ; 0x65c
        0x00001fde:    e721        !.      B        0x1e24 ; display_to_mcu + 238
        0x00001fe0:    f7fefb39    ..9.    BL       write_power_after_stage_set ; 0x656
        0x00001fe4:    e71e        ..      B        0x1e24 ; display_to_mcu + 238
        0x00001fe6:    4610        .F      MOV      r0,r2
        0x00001fe8:    f7fefb42    ..B.    BL       write_time_on_after_stage_set ; 0x670
        0x00001fec:    e71a        ..      B        0x1e24 ; display_to_mcu + 238
        0x00001fee:    2801        .(      CMP      r0,#1
        0x00001ff0:    d00b        ..      BEQ      0x200a ; display_to_mcu + 724
        0x00001ff2:    2802        .(      CMP      r0,#2
        0x00001ff4:    d00b        ..      BEQ      0x200e ; display_to_mcu + 728
        0x00001ff6:    2803        .(      CMP      r0,#3
        0x00001ff8:    d00b        ..      BEQ      0x2012 ; display_to_mcu + 732
        0x00001ffa:    2804        .(      CMP      r0,#4
        0x00001ffc:    d00b        ..      BEQ      0x2016 ; display_to_mcu + 736
        0x00001ffe:    2805        .(      CMP      r0,#5
        0x00002000:    d00b        ..      BEQ      0x201a ; display_to_mcu + 740
        0x00002002:    2806        .(      CMP      r0,#6
        0x00002004:    d184        ..      BNE      0x1f10 ; display_to_mcu + 474
        0x00002006:    2005        .       MOVS     r0,#5
        0x00002008:    e7e7        ..      B        0x1fda ; display_to_mcu + 676
        0x0000200a:    2000        .       MOVS     r0,#0
        0x0000200c:    e7d7        ..      B        0x1fbe ; display_to_mcu + 648
        0x0000200e:    2001        .       MOVS     r0,#1
        0x00002010:    e7d5        ..      B        0x1fbe ; display_to_mcu + 648
        0x00002012:    2002        .       MOVS     r0,#2
        0x00002014:    e7d3        ..      B        0x1fbe ; display_to_mcu + 648
        0x00002016:    2000        .       MOVS     r0,#0
        0x00002018:    e7df        ..      B        0x1fda ; display_to_mcu + 676
        0x0000201a:    2004        .       MOVS     r0,#4
        0x0000201c:    e7dd        ..      B        0x1fda ; display_to_mcu + 676
        0x0000201e:    b170        p.      CBZ      r0,0x203e ; display_to_mcu + 776
        0x00002020:    2801        .(      CMP      r0,#1
        0x00002022:    d185        ..      BNE      0x1f30 ; display_to_mcu + 506
        0x00002024:    f7fefb53    ..S.    BL       read_history_point_set ; 0x6ce
        0x00002028:    4605        .F      MOV      r5,r0
        0x0000202a:    f7fefb4d    ..M.    BL       read_history_point_display ; 0x6c8
        0x0000202e:    4285        .B      CMP      r5,r0
        0x00002030:    d285        ..      BCS      0x1f3e ; display_to_mcu + 520
        0x00002032:    f7fefb4c    ..L.    BL       read_history_point_set ; 0x6ce
        0x00002036:    1c40        @.      ADDS     r0,r0,#1
        0x00002038:    f7fefb3b    ..;.    BL       write_history_point_set ; 0x6b2
        0x0000203c:    e6f2        ..      B        0x1e24 ; display_to_mcu + 238
        0x0000203e:    f7fefb46    ..F.    BL       read_history_point_set ; 0x6ce
        0x00002042:    2801        .(      CMP      r0,#1
        0x00002044:    d985        ..      BLS      0x1f52 ; display_to_mcu + 540
        0x00002046:    f7fefb42    ..B.    BL       read_history_point_set ; 0x6ce
        0x0000204a:    1e40        @.      SUBS     r0,r0,#1
        0x0000204c:    e7f4        ..      B        0x2038 ; display_to_mcu + 770
    $d
        0x0000204e:    0000        ..      DCW    0
        0x00002050:    200001f8    ...     DCD    536871416
        0x00002054:    2000003d    =..     DCD    536870973
    $t
    .text
    Hard_Fault_Handler
    __tagsym$$used
        0x00002058:    4604        .F      MOV      r4,r0
        0x0000205a:    a01f        ..      ADR      r0,{pc}+0x7e ; 0x20d8
        0x0000205c:    f000fca8    ....    BL       __0printf$5 ; 0x29b0
        0x00002060:    4620         F      MOV      r0,r4
        0x00002062:    f000f807    ....    BL       stackDump ; 0x2074
        0x00002066:    e7fe        ..      B        0x2066 ; Hard_Fault_Handler + 14
    fputc
        0x00002068:    b510        ..      PUSH     {r4,lr}
        0x0000206a:    4604        .F      MOV      r4,r0
        0x0000206c:    f000f826    ..&.    BL       SendChar ; 0x20bc
        0x00002070:    4620         F      MOV      r0,r4
        0x00002072:    bd10        ..      POP      {r4,pc}
    stackDump
        0x00002074:    b510        ..      PUSH     {r4,lr}
        0x00002076:    4604        .F      MOV      r4,r0
        0x00002078:    6801        .h      LDR      r1,[r0,#0]
        0x0000207a:    a01d        ..      ADR      r0,{pc}+0x76 ; 0x20f0
        0x0000207c:    f000fc98    ....    BL       __0printf$5 ; 0x29b0
        0x00002080:    a01e        ..      ADR      r0,{pc}+0x7c ; 0x20fc
        0x00002082:    6861        ah      LDR      r1,[r4,#4]
        0x00002084:    f000fc94    ....    BL       __0printf$5 ; 0x29b0
        0x00002088:    a01f        ..      ADR      r0,{pc}+0x80 ; 0x2108
        0x0000208a:    68a1        .h      LDR      r1,[r4,#8]
        0x0000208c:    f000fc90    ....    BL       __0printf$5 ; 0x29b0
        0x00002090:    a020         .      ADR      r0,{pc}+0x84 ; 0x2114
        0x00002092:    68e1        .h      LDR      r1,[r4,#0xc]
        0x00002094:    f000fc8c    ....    BL       __0printf$5 ; 0x29b0
        0x00002098:    a021        !.      ADR      r0,{pc}+0x88 ; 0x2120
        0x0000209a:    6921        !i      LDR      r1,[r4,#0x10]
        0x0000209c:    f000fc88    ....    BL       __0printf$5 ; 0x29b0
        0x000020a0:    a022        ".      ADR      r0,{pc}+0x8c ; 0x212c
        0x000020a2:    6961        ai      LDR      r1,[r4,#0x14]
        0x000020a4:    f000fc84    ....    BL       __0printf$5 ; 0x29b0
        0x000020a8:    a023        #.      ADR      r0,{pc}+0x90 ; 0x2138
        0x000020aa:    69a1        .i      LDR      r1,[r4,#0x18]
        0x000020ac:    f000fc80    ....    BL       __0printf$5 ; 0x29b0
        0x000020b0:    69e1        .i      LDR      r1,[r4,#0x1c]
        0x000020b2:    e8bd4010    ...@    POP      {r4,lr}
        0x000020b6:    a023        #.      ADR      r0,{pc}+0x8e ; 0x2144
        0x000020b8:    f000bc7a    ..z.    B.W      __0printf$5 ; 0x29b0
    SendChar
        0x000020bc:    4924        $I      LDR      r1,[pc,#144] ; [0x2150] = 0x40070000
        0x000020be:    698a        .i      LDR      r2,[r1,#0x18]
        0x000020c0:    0212        ..      LSLS     r2,r2,#8
        0x000020c2:    d4fc        ..      BMI      0x20be ; SendChar + 2
        0x000020c4:    280a        .(      CMP      r0,#0xa
        0x000020c6:    d104        ..      BNE      0x20d2 ; SendChar + 22
        0x000020c8:    220d        ."      MOVS     r2,#0xd
        0x000020ca:    600a        .`      STR      r2,[r1,#0]
        0x000020cc:    698a        .i      LDR      r2,[r1,#0x18]
        0x000020ce:    0212        ..      LSLS     r2,r2,#8
        0x000020d0:    d4fc        ..      BMI      0x20cc ; SendChar + 16
        0x000020d2:    6008        .`      STR      r0,[r1,#0]
        0x000020d4:    4770        pG      BX       lr
    $d
        0x000020d6:    0000        ..      DCW    0
        0x000020d8:    48206e49    In H    DCD    1210084937
        0x000020dc:    20647261    ard     DCD    543453793
        0x000020e0:    6c756146    Faul    DCD    1819631942
        0x000020e4:    61482074    t Ha    DCD    1632116852
        0x000020e8:    656c646e    ndle    DCD    1701602414
        0x000020ec:    00000a72    r...    DCD    2674
        0x000020f0:    20203072    r0      DCD    538980466
        0x000020f4:    7830203d    = 0x    DCD    2016419901
        0x000020f8:    000a7825    %x..    DCD    686117
        0x000020fc:    20203172    r1      DCD    538980722
        0x00002100:    7830203d    = 0x    DCD    2016419901
        0x00002104:    000a7825    %x..    DCD    686117
        0x00002108:    20203272    r2      DCD    538980978
        0x0000210c:    7830203d    = 0x    DCD    2016419901
        0x00002110:    000a7825    %x..    DCD    686117
        0x00002114:    20203372    r3      DCD    538981234
        0x00002118:    7830203d    = 0x    DCD    2016419901
        0x0000211c:    000a7825    %x..    DCD    686117
        0x00002120:    20323172    r12     DCD    540160370
        0x00002124:    7830203d    = 0x    DCD    2016419901
        0x00002128:    000a7825    %x..    DCD    686117
        0x0000212c:    2020726c    lr      DCD    538997356
        0x00002130:    7830203d    = 0x    DCD    2016419901
        0x00002134:    000a7825    %x..    DCD    686117
        0x00002138:    20206370    pc      DCD    538993520
        0x0000213c:    7830203d    = 0x    DCD    2016419901
        0x00002140:    000a7825    %x..    DCD    686117
        0x00002144:    20727370    psr     DCD    544371568
        0x00002148:    7830203d    = 0x    DCD    2016419901
        0x0000214c:    000a7825    %x..    DCD    686117
        0x00002150:    40070000    ...@    DCD    1074200576
    $t
    .text
    CLK_SetModuleClock
        0x00002154:    b5f0        ..      PUSH     {r4-r7,lr}
        0x00002156:    f4103f7f    ...?    TST      r0,#0x3fc00
        0x0000215a:    d02e        ..      BEQ      0x21ba ; CLK_SetModuleClock + 102
        0x0000215c:    f04f4380    O..C    MOV      r3,#0x40000000
        0x00002160:    f8d331f4    ...1    LDR      r3,[r3,#0x1f4]
        0x00002164:    f8dfc3e8    ....    LDR      r12,[pc,#1000] ; [0x2550] = 0x4000022c
        0x00002168:    b2df        ..      UXTB     r7,r3
        0x0000216a:    4bf9        .K      LDR      r3,[pc,#996] ; [0x2550] = 0x4000022c
        0x0000216c:    f3c04481    ...D    UBFX     r4,r0,#18,#2
        0x00002170:    3b0c        .;      SUBS     r3,r3,#0xc
        0x00002172:    ea6f4590    o..E    MVN      r5,r0,LSR #18
        0x00002176:    f10c0604    ....    ADD      r6,r12,#4
        0x0000217a:    eb030384    ....    ADD      r3,r3,r4,LSL #2
        0x0000217e:    2f01        ./      CMP      r7,#1
        0x00002180:    d002        ..      BEQ      0x2188 ; CLK_SetModuleClock + 52
        0x00002182:    2c02        .,      CMP      r4,#2
        0x00002184:    d00d        ..      BEQ      0x21a2 ; CLK_SetModuleClock + 78
        0x00002186:    e001        ..      B        0x218c ; CLK_SetModuleClock + 56
        0x00002188:    2c02        .,      CMP      r4,#2
        0x0000218a:    d002        ..      BEQ      0x2192 ; CLK_SetModuleClock + 62
        0x0000218c:    07ac        ..      LSLS     r4,r5,#30
        0x0000218e:    d00a        ..      BEQ      0x21a6 ; CLK_SetModuleClock + 82
        0x00002190:    e00a        ..      B        0x21a8 ; CLK_SetModuleClock + 84
        0x00002192:    43c3        .C      MVNS     r3,r0
        0x00002194:    06dc        ..      LSLS     r4,r3,#27
        0x00002196:    4bef        .K      LDR      r3,[pc,#956] ; [0x2554] = 0x40000228
        0x00002198:    d006        ..      BEQ      0x21a8 ; CLK_SetModuleClock + 84
        0x0000219a:    f000041f    ....    AND      r4,r0,#0x1f
        0x0000219e:    2c1d        .,      CMP      r4,#0x1d
        0x000021a0:    d002        ..      BEQ      0x21a8 ; CLK_SetModuleClock + 84
        0x000021a2:    4663        cF      MOV      r3,r12
        0x000021a4:    e000        ..      B        0x21a8 ; CLK_SetModuleClock + 84
        0x000021a6:    4633        3F      MOV      r3,r6
        0x000021a8:    681c        .h      LDR      r4,[r3,#0]
        0x000021aa:    f3c02587    ...%    UBFX     r5,r0,#10,#8
        0x000021ae:    f3c01644    ..D.    UBFX     r6,r0,#5,#5
        0x000021b2:    40b5        .@      LSLS     r5,r5,r6
        0x000021b4:    43ac        .C      BICS     r4,r4,r5
        0x000021b6:    4314        .C      ORRS     r4,r4,r2
        0x000021b8:    601c        .`      STR      r4,[r3,#0]
        0x000021ba:    0e42        B.      LSRS     r2,r0,#25
        0x000021bc:    0752        R.      LSLS     r2,r2,#29
        0x000021be:    d00e        ..      BEQ      0x21de ; CLK_SetModuleClock + 138
        0x000021c0:    4be4        .K      LDR      r3,[pc,#912] ; [0x2554] = 0x40000228
        0x000021c2:    f3c07201    ...r    UBFX     r2,r0,#28,#2
        0x000021c6:    3b18        .;      SUBS     r3,r3,#0x18
        0x000021c8:    eb030282    ....    ADD      r2,r3,r2,LSL #2
        0x000021cc:    6813        .h      LDR      r3,[r2,#0]
        0x000021ce:    f3c06442    ..Bd    UBFX     r4,r0,#25,#3
        0x000021d2:    f3c05004    ...P    UBFX     r0,r0,#20,#5
        0x000021d6:    4084        .@      LSLS     r4,r4,r0
        0x000021d8:    43a3        .C      BICS     r3,r3,r4
        0x000021da:    430b        .C      ORRS     r3,r3,r1
        0x000021dc:    6013        .`      STR      r3,[r2,#0]
        0x000021de:    bdf0        ..      POP      {r4-r7,pc}
    CLK_EnableModuleClock
        0x000021e0:    f000021f    ....    AND      r2,r0,#0x1f
        0x000021e4:    2101        .!      MOVS     r1,#1
        0x000021e6:    4091        .@      LSLS     r1,r1,r2
        0x000021e8:    4ada        .J      LDR      r2,[pc,#872] ; [0x2554] = 0x40000228
        0x000021ea:    3a24        $:      SUBS     r2,r2,#0x24
        0x000021ec:    0f80        ..      LSRS     r0,r0,#30
        0x000021ee:    eb020080    ....    ADD      r0,r2,r0,LSL #2
        0x000021f2:    6802        .h      LDR      r2,[r0,#0]
        0x000021f4:    430a        .C      ORRS     r2,r2,r1
        0x000021f6:    6002        .`      STR      r2,[r0,#0]
        0x000021f8:    4770        pG      BX       lr
    CLK_GetPCLK0Freq
        0x000021fa:    b510        ..      PUSH     {r4,lr}
        0x000021fc:    f7fef814    ....    BL       SystemCoreClockUpdate ; 0x228
        0x00002200:    f04f4180    O..A    MOV      r1,#0x40000000
        0x00002204:    f8d10234    ..4.    LDR      r0,[r1,#0x234]
        0x00002208:    0742        B.      LSLS     r2,r0,#29
        0x0000220a:    48d3        .H      LDR      r0,[pc,#844] ; [0x2558] = 0x20000000
        0x0000220c:    d017        ..      BEQ      0x223e ; CLK_GetPCLK0Freq + 68
        0x0000220e:    f8d12234    ..4"    LDR      r2,[r1,#0x234]
        0x00002212:    f0020207    ....    AND      r2,r2,#7
        0x00002216:    2a01        .*      CMP      r2,#1
        0x00002218:    d013        ..      BEQ      0x2242 ; CLK_GetPCLK0Freq + 72
        0x0000221a:    f8d12234    ..4"    LDR      r2,[r1,#0x234]
        0x0000221e:    f0020207    ....    AND      r2,r2,#7
        0x00002222:    2a02        .*      CMP      r2,#2
        0x00002224:    d010        ..      BEQ      0x2248 ; CLK_GetPCLK0Freq + 78
        0x00002226:    f8d12234    ..4"    LDR      r2,[r1,#0x234]
        0x0000222a:    f0020207    ....    AND      r2,r2,#7
        0x0000222e:    2a03        .*      CMP      r2,#3
        0x00002230:    d00d        ..      BEQ      0x224e ; CLK_GetPCLK0Freq + 84
        0x00002232:    f8d11234    ..4.    LDR      r1,[r1,#0x234]
        0x00002236:    f0010107    ....    AND      r1,r1,#7
        0x0000223a:    2904        .)      CMP      r1,#4
        0x0000223c:    d00a        ..      BEQ      0x2254 ; CLK_GetPCLK0Freq + 90
        0x0000223e:    6800        .h      LDR      r0,[r0,#0]
        0x00002240:    bd10        ..      POP      {r4,pc}
        0x00002242:    6800        .h      LDR      r0,[r0,#0]
        0x00002244:    0840        @.      LSRS     r0,r0,#1
        0x00002246:    bd10        ..      POP      {r4,pc}
        0x00002248:    6800        .h      LDR      r0,[r0,#0]
        0x0000224a:    0880        ..      LSRS     r0,r0,#2
        0x0000224c:    bd10        ..      POP      {r4,pc}
        0x0000224e:    6800        .h      LDR      r0,[r0,#0]
        0x00002250:    08c0        ..      LSRS     r0,r0,#3
        0x00002252:    bd10        ..      POP      {r4,pc}
        0x00002254:    6800        .h      LDR      r0,[r0,#0]
        0x00002256:    0900        ..      LSRS     r0,r0,#4
        0x00002258:    bd10        ..      POP      {r4,pc}
    CLK_GetPCLK1Freq
        0x0000225a:    b510        ..      PUSH     {r4,lr}
        0x0000225c:    f7fdffe4    ....    BL       SystemCoreClockUpdate ; 0x228
        0x00002260:    f04f4180    O..A    MOV      r1,#0x40000000
        0x00002264:    f8d10234    ..4.    LDR      r0,[r1,#0x234]
        0x00002268:    f0100f70    ..p.    TST      r0,#0x70
        0x0000226c:    48ba        .H      LDR      r0,[pc,#744] ; [0x2558] = 0x20000000
        0x0000226e:    d017        ..      BEQ      0x22a0 ; CLK_GetPCLK1Freq + 70
        0x00002270:    f8d12234    ..4"    LDR      r2,[r1,#0x234]
        0x00002274:    f3c21202    ....    UBFX     r2,r2,#4,#3
        0x00002278:    2a01        .*      CMP      r2,#1
        0x0000227a:    d013        ..      BEQ      0x22a4 ; CLK_GetPCLK1Freq + 74
        0x0000227c:    f8d12234    ..4"    LDR      r2,[r1,#0x234]
        0x00002280:    f3c21202    ....    UBFX     r2,r2,#4,#3
        0x00002284:    2a02        .*      CMP      r2,#2
        0x00002286:    d010        ..      BEQ      0x22aa ; CLK_GetPCLK1Freq + 80
        0x00002288:    f8d12234    ..4"    LDR      r2,[r1,#0x234]
        0x0000228c:    f3c21202    ....    UBFX     r2,r2,#4,#3
        0x00002290:    2a03        .*      CMP      r2,#3
        0x00002292:    d00d        ..      BEQ      0x22b0 ; CLK_GetPCLK1Freq + 86
        0x00002294:    f8d11234    ..4.    LDR      r1,[r1,#0x234]
        0x00002298:    f3c11102    ....    UBFX     r1,r1,#4,#3
        0x0000229c:    2904        .)      CMP      r1,#4
        0x0000229e:    d00a        ..      BEQ      0x22b6 ; CLK_GetPCLK1Freq + 92
        0x000022a0:    6800        .h      LDR      r0,[r0,#0]
        0x000022a2:    bd10        ..      POP      {r4,pc}
        0x000022a4:    6800        .h      LDR      r0,[r0,#0]
        0x000022a6:    0840        @.      LSRS     r0,r0,#1
        0x000022a8:    bd10        ..      POP      {r4,pc}
        0x000022aa:    6800        .h      LDR      r0,[r0,#0]
        0x000022ac:    0880        ..      LSRS     r0,r0,#2
        0x000022ae:    bd10        ..      POP      {r4,pc}
        0x000022b0:    6800        .h      LDR      r0,[r0,#0]
        0x000022b2:    08c0        ..      LSRS     r0,r0,#3
        0x000022b4:    bd10        ..      POP      {r4,pc}
        0x000022b6:    6800        .h      LDR      r0,[r0,#0]
        0x000022b8:    0900        ..      LSRS     r0,r0,#4
        0x000022ba:    bd10        ..      POP      {r4,pc}
    CLK_WaitClockReady
        0x000022bc:    b570        p.      PUSH     {r4-r6,lr}
        0x000022be:    4605        .F      MOV      r5,r0
        0x000022c0:    48a5        .H      LDR      r0,[pc,#660] ; [0x2558] = 0x20000000
        0x000022c2:    4ea6        .N      LDR      r6,[pc,#664] ; [0x255c] = 0x20000660
        0x000022c4:    2401        .$      MOVS     r4,#1
        0x000022c6:    6800        .h      LDR      r0,[r0,#0]
        0x000022c8:    0841        A.      LSRS     r1,r0,#1
        0x000022ca:    2000        .       MOVS     r0,#0
        0x000022cc:    07a2        ..      LSLS     r2,r4,#30
        0x000022ce:    6030        0`      STR      r0,[r6,#0]
        0x000022d0:    e001        ..      B        0x22d6 ; CLK_WaitClockReady + 26
        0x000022d2:    1e49        I.      SUBS     r1,r1,#1
        0x000022d4:    d006        ..      BEQ      0x22e4 ; CLK_WaitClockReady + 40
        0x000022d6:    f8d23250    ..P2    LDR      r3,[r2,#0x250]
        0x000022da:    ea350003    5...    BICS     r0,r5,r3
        0x000022de:    d1f8        ..      BNE      0x22d2 ; CLK_WaitClockReady + 22
        0x000022e0:    b109        ..      CBZ      r1,0x22e6 ; CLK_WaitClockReady + 42
        0x000022e2:    e003        ..      B        0x22ec ; CLK_WaitClockReady + 48
        0x000022e4:    2400        .$      MOVS     r4,#0
        0x000022e6:    f04f30ff    O..0    MOV      r0,#0xffffffff
        0x000022ea:    6030        0`      STR      r0,[r6,#0]
        0x000022ec:    4620         F      MOV      r0,r4
        0x000022ee:    bd70        p.      POP      {r4-r6,pc}
    CLK_SetHCLK
        0x000022f0:    e92d41f0    -..A    PUSH     {r4-r8,lr}
        0x000022f4:    f04f4480    O..D    MOV      r4,#0x40000000
        0x000022f8:    4607        .F      MOV      r7,r0
        0x000022fa:    f8d40250    ..P.    LDR      r0,[r4,#0x250]
        0x000022fe:    460e        .F      MOV      r6,r1
        0x00002300:    f0000510    ....    AND      r5,r0,#0x10
        0x00002304:    f8d40200    ....    LDR      r0,[r4,#0x200]
        0x00002308:    f0400004    @...    ORR      r0,r0,#4
        0x0000230c:    f8c40200    ....    STR      r0,[r4,#0x200]
        0x00002310:    2010        .       MOVS     r0,#0x10
        0x00002312:    f5047400    ...t    ADD      r4,r4,#0x200
        0x00002316:    f7ffffd1    ....    BL       CLK_WaitClockReady ; 0x22bc
        0x0000231a:    6920         i      LDR      r0,[r4,#0x10]
        0x0000231c:    f0400007    @...    ORR      r0,r0,#7
        0x00002320:    6120         a      STR      r0,[r4,#0x10]
        0x00002322:    6a20         j      LDR      r0,[r4,#0x20]
        0x00002324:    f020000f     ...    BIC      r0,r0,#0xf
        0x00002328:    4330        0C      ORRS     r0,r0,r6
        0x0000232a:    6220         b      STR      r0,[r4,#0x20]
        0x0000232c:    6920         i      LDR      r0,[r4,#0x10]
        0x0000232e:    f0200007     ...    BIC      r0,r0,#7
        0x00002332:    4338        8C      ORRS     r0,r0,r7
        0x00002334:    6120         a      STR      r0,[r4,#0x10]
        0x00002336:    f5a47400    ...t    SUB      r4,r4,#0x200
        0x0000233a:    f7fdff75    ..u.    BL       SystemCoreClockUpdate ; 0x228
        0x0000233e:    2d00        .-      CMP      r5,#0
        0x00002340:    d105        ..      BNE      0x234e ; CLK_SetHCLK + 94
        0x00002342:    f8d40200    ....    LDR      r0,[r4,#0x200]
        0x00002346:    f0200004     ...    BIC      r0,r0,#4
        0x0000234a:    f8c40200    ....    STR      r0,[r4,#0x200]
        0x0000234e:    e8bd81f0    ....    POP      {r4-r8,pc}
    CLK_GetPLLClockFreq
        0x00002352:    b508        ..      PUSH     {r3,lr}
        0x00002354:    a182        ..      ADR      r1,{pc}+0x20c ; 0x2560
        0x00002356:    2000        .       MOVS     r0,#0
        0x00002358:    6809        .h      LDR      r1,[r1,#0]
        0x0000235a:    9100        ..      STR      r1,[sp,#0]
        0x0000235c:    f04f4180    O..A    MOV      r1,#0x40000000
        0x00002360:    f8d11240    ..@.    LDR      r1,[r1,#0x240]
        0x00002364:    f4112fa0    .../    TST      r1,#0x50000
        0x00002368:    d113        ..      BNE      0x2392 ; CLK_GetPLLClockFreq + 64
        0x0000236a:    487e        ~H      LDR      r0,[pc,#504] ; [0x2564] = 0xb71b00
        0x0000236c:    038a        ..      LSLS     r2,r1,#14
        0x0000236e:    d410        ..      BMI      0x2392 ; CLK_GetPLLClockFreq + 64
        0x00002370:    f3c10008    ....    UBFX     r0,r1,#0,#9
        0x00002374:    f3c13281    ...2    UBFX     r2,r1,#14,#2
        0x00002378:    4b7b        {K      LDR      r3,[pc,#492] ; [0x2568] = 0x2dc6c0
        0x0000237a:    1c80        ..      ADDS     r0,r0,#2
        0x0000237c:    f81d2002    ...     LDRB     r2,[sp,r2]
        0x00002380:    f3c12144    ..D!    UBFX     r1,r1,#9,#5
        0x00002384:    4358        XC      MULS     r0,r3,r0
        0x00002386:    1c49        I.      ADDS     r1,r1,#1
        0x00002388:    fb11f102    ....    SMULBB   r1,r1,r2
        0x0000238c:    fbb0f0f1    ....    UDIV     r0,r0,r1
        0x00002390:    00c0        ..      LSLS     r0,r0,#3
        0x00002392:    bd08        ..      POP      {r3,pc}
    CLK_DisablePLL
        0x00002394:    f04f4080    O..@    MOV      r0,#0x40000000
        0x00002398:    f8d01240    ..@.    LDR      r1,[r0,#0x240]
        0x0000239c:    f4413180    A..1    ORR      r1,r1,#0x10000
        0x000023a0:    f8c01240    ..@.    STR      r1,[r0,#0x240]
        0x000023a4:    4770        pG      BX       lr
    CLK_EnablePLL
        0x000023a6:    e92d4ff8    -..O    PUSH     {r3-r11,lr}
        0x000023aa:    460e        .F      MOV      r6,r1
        0x000023ac:    4604        .F      MOV      r4,r0
        0x000023ae:    f7fffff1    ....    BL       CLK_DisablePLL ; 0x2394
        0x000023b2:    f04f4080    O..@    MOV      r0,#0x40000000
        0x000023b6:    4d6b        kM      LDR      r5,[pc,#428] ; [0x2564] = 0xb71b00
        0x000023b8:    f8d01200    ....    LDR      r1,[r0,#0x200]
        0x000023bc:    b1c4        ..      CBZ      r4,0x23f0 ; CLK_EnablePLL + 74
        0x000023be:    f0410104    A...    ORR      r1,r1,#4
        0x000023c2:    f8c01200    ....    STR      r1,[r0,#0x200]
        0x000023c6:    2010        .       MOVS     r0,#0x10
        0x000023c8:    f7ffff78    ..x.    BL       CLK_WaitClockReady ; 0x22bc
        0x000023cc:    f44f2000    O..     MOV      r0,#0x80000
        0x000023d0:    9000        ..      STR      r0,[sp,#0]
        0x000023d2:    4866        fH      LDR      r0,[pc,#408] ; [0x256c] = 0xfd050f80
        0x000023d4:    4966        fI      LDR      r1,[pc,#408] ; [0x2570] = 0x1ad27480
        0x000023d6:    4430        0D      ADD      r0,r0,r6
        0x000023d8:    46ab        .F      MOV      r11,r5
        0x000023da:    4288        .B      CMP      r0,r1
        0x000023dc:    d869        i.      BHI      0x24b2 ; CLK_EnablePLL + 268
        0x000023de:    f04f0900    O...    MOV      r9,#0
        0x000023e2:    f04f31ff    O..1    MOV      r1,#0xffffffff
        0x000023e6:    46cc        .F      MOV      r12,r9
        0x000023e8:    464f        OF      MOV      r7,r9
        0x000023ea:    46b6        .F      MOV      lr,r6
        0x000023ec:    2501        .%      MOVS     r5,#1
        0x000023ee:    e015        ..      B        0x241c ; CLK_EnablePLL + 118
        0x000023f0:    f0410101    A...    ORR      r1,r1,#1
        0x000023f4:    f8c01200    ....    STR      r1,[r0,#0x200]
        0x000023f8:    2001        .       MOVS     r0,#1
        0x000023fa:    f7ffff5f    .._.    BL       CLK_WaitClockReady ; 0x22bc
        0x000023fe:    2000        .       MOVS     r0,#0
        0x00002400:    e7e6        ..      B        0x23d0 ; CLK_EnablePLL + 42
        0x00002402:    b3d1        ..      CBZ      r1,0x247a ; CLK_EnablePLL + 212
        0x00002404:    2d03        .-      CMP      r5,#3
        0x00002406:    d035        5.      BEQ      0x2474 ; CLK_EnablePLL + 206
        0x00002408:    2d04        .-      CMP      r5,#4
        0x0000240a:    d002        ..      BEQ      0x2412 ; CLK_EnablePLL + 108
        0x0000240c:    2d02        .-      CMP      r5,#2
        0x0000240e:    d105        ..      BNE      0x241c ; CLK_EnablePLL + 118
        0x00002410:    e002        ..      B        0x2418 ; CLK_EnablePLL + 114
        0x00002412:    ea4f068e    O...    LSL      r6,lr,#2
        0x00002416:    e001        ..      B        0x241c ; CLK_EnablePLL + 118
        0x00002418:    ea4f064e    O.N.    LSL      r6,lr,#1
        0x0000241c:    2202        ."      MOVS     r2,#2
        0x0000241e:    b349        I.      CBZ      r1,0x2474 ; CLK_EnablePLL + 206
        0x00002420:    fbbbf0f2    ....    UDIV     r0,r11,r2
        0x00002424:    4b53        SK      LDR      r3,[pc,#332] ; [0x2574] = 0xffc2f700
        0x00002426:    4c53        SL      LDR      r4,[pc,#332] ; [0x2574] = 0xffc2f700
        0x00002428:    4403        .D      ADD      r3,r3,r0
        0x0000242a:    4264        dB      RSBS     r4,r4,#0
        0x0000242c:    42a3        .B      CMP      r3,r4
        0x0000242e:    d81e        ..      BHI      0x246e ; CLK_EnablePLL + 200
        0x00002430:    2402        .$      MOVS     r4,#2
        0x00002432:    f3c00a5d    ..].    UBFX     r10,r0,#1,#30
        0x00002436:    4b4d        MK      LDR      r3,[pc,#308] ; [0x256c] = 0xfd050f80
        0x00002438:    fb0af004    ....    MUL      r0,r10,r4
        0x0000243c:    eb000803    ....    ADD      r8,r0,r3
        0x00002440:    4b4d        MK      LDR      r3,[pc,#308] ; [0x2578] = 0x47868c0
        0x00002442:    4598        .E      CMP      r8,r3
        0x00002444:    d80e        ..      BHI      0x2464 ; CLK_EnablePLL + 190
        0x00002446:    ebb00f96    ....    CMP      r0,r6,LSR #2
        0x0000244a:    d902        ..      BLS      0x2452 ; CLK_EnablePLL + 172
        0x0000244c:    eba00096    ....    SUB      r0,r0,r6,LSR #2
        0x00002450:    e001        ..      B        0x2456 ; CLK_EnablePLL + 176
        0x00002452:    ebc00096    ....    RSB      r0,r0,r6,LSR #2
        0x00002456:    4288        .B      CMP      r0,r1
        0x00002458:    d204        ..      BCS      0x2464 ; CLK_EnablePLL + 190
        0x0000245a:    0001        ..      MOVS     r1,r0
        0x0000245c:    4691        .F      MOV      r9,r2
        0x0000245e:    46a4        .F      MOV      r12,r4
        0x00002460:    462f        /F      MOV      r7,r5
        0x00002462:    d004        ..      BEQ      0x246e ; CLK_EnablePLL + 200
        0x00002464:    f2402001    @..     MOV      r0,#0x201
        0x00002468:    1c64        d.      ADDS     r4,r4,#1
        0x0000246a:    4284        .B      CMP      r4,r0
        0x0000246c:    d9e3        ..      BLS      0x2436 ; CLK_EnablePLL + 144
        0x0000246e:    1c52        R.      ADDS     r2,r2,#1
        0x00002470:    2a20         *      CMP      r2,#0x20
        0x00002472:    d9d4        ..      BLS      0x241e ; CLK_EnablePLL + 120
        0x00002474:    1c6d        m.      ADDS     r5,r5,#1
        0x00002476:    2d04        .-      CMP      r5,#4
        0x00002478:    d9c3        ..      BLS      0x2402 ; CLK_EnablePLL + 92
        0x0000247a:    4840        @H      LDR      r0,[pc,#256] ; [0x257c] = 0xffffc000
        0x0000247c:    9900        ..      LDR      r1,[sp,#0]
        0x0000247e:    eb003087    ...0    ADD      r0,r0,r7,LSL #14
        0x00002482:    4a3f        ?J      LDR      r2,[pc,#252] ; [0x2580] = 0xfffffe00
        0x00002484:    4308        .C      ORRS     r0,r0,r1
        0x00002486:    eb022149    ..I!    ADD      r1,r2,r9,LSL #9
        0x0000248a:    4308        .C      ORRS     r0,r0,r1
        0x0000248c:    f1ac0102    ....    SUB      r1,r12,#2
        0x00002490:    4308        .C      ORRS     r0,r0,r1
        0x00002492:    f04f4180    O..A    MOV      r1,#0x40000000
        0x00002496:    f8c10240    ..@.    STR      r0,[r1,#0x240]
        0x0000249a:    2004        .       MOVS     r0,#4
        0x0000249c:    f7ffff0e    ....    BL       CLK_WaitClockReady ; 0x22bc
        0x000024a0:    fb07f709    ....    MUL      r7,r7,r9
        0x000024a4:    fbbbf0f7    ....    UDIV     r0,r11,r7
        0x000024a8:    fb00f00c    ....    MUL      r0,r0,r12
        0x000024ac:    0040        @.      LSLS     r0,r0,#1
        0x000024ae:    e8bd8ff8    ....    POP      {r3-r11,pc}
        0x000024b2:    b154        T.      CBZ      r4,0x24ca ; CLK_EnablePLL + 292
        0x000024b4:    4933        3I      LDR      r1,[pc,#204] ; [0x2584] = 0x8421e
        0x000024b6:    f04f4080    O..@    MOV      r0,#0x40000000
        0x000024ba:    f8c01240    ..@.    STR      r1,[r0,#0x240]
        0x000024be:    2004        .       MOVS     r0,#4
        0x000024c0:    f7fffefc    ....    BL       CLK_WaitClockReady ; 0x22bc
        0x000024c4:    e8bd4ff8    ...O    POP      {r3-r11,lr}
        0x000024c8:    e743        C.      B        CLK_GetPLLClockFreq ; 0x2352
        0x000024ca:    f244211e    D..!    MOV      r1,#0x421e
        0x000024ce:    e7f2        ..      B        0x24b6 ; CLK_EnablePLL + 272
    CLK_SetCoreClock
        0x000024d0:    b570        p.      PUSH     {r4-r6,lr}
        0x000024d2:    f04f4480    O..D    MOV      r4,#0x40000000
        0x000024d6:    4606        .F      MOV      r6,r0
        0x000024d8:    f8d40250    ..P.    LDR      r0,[r4,#0x250]
        0x000024dc:    f0000510    ....    AND      r5,r0,#0x10
        0x000024e0:    4829        )H      LDR      r0,[pc,#164] ; [0x2588] = 0xb71b000
        0x000024e2:    4286        .B      CMP      r6,r0
        0x000024e4:    d900        ..      BLS      0x24e8 ; CLK_SetCoreClock + 24
        0x000024e6:    4606        .F      MOV      r6,r0
        0x000024e8:    f8d40200    ....    LDR      r0,[r4,#0x200]
        0x000024ec:    f0400004    @...    ORR      r0,r0,#4
        0x000024f0:    f8c40200    ....    STR      r0,[r4,#0x200]
        0x000024f4:    2010        .       MOVS     r0,#0x10
        0x000024f6:    f5047400    ...t    ADD      r4,r4,#0x200
        0x000024fa:    f7fffedf    ....    BL       CLK_WaitClockReady ; 0x22bc
        0x000024fe:    6920         i      LDR      r0,[r4,#0x10]
        0x00002500:    f0400007    @...    ORR      r0,r0,#7
        0x00002504:    6120         a      STR      r0,[r4,#0x10]
        0x00002506:    6a20         j      LDR      r0,[r4,#0x20]
        0x00002508:    f020000f     ...    BIC      r0,r0,#0xf
        0x0000250c:    6220         b      STR      r0,[r4,#0x20]
        0x0000250e:    6820         h      LDR      r0,[r4,#0]
        0x00002510:    f5a47400    ...t    SUB      r4,r4,#0x200
        0x00002514:    07c0        ..      LSLS     r0,r0,#31
        0x00002516:    4631        1F      MOV      r1,r6
        0x00002518:    d004        ..      BEQ      0x2524 ; CLK_SetCoreClock + 84
        0x0000251a:    2000        .       MOVS     r0,#0
        0x0000251c:    f7ffff43    ..C.    BL       CLK_EnablePLL ; 0x23a6
        0x00002520:    4606        .F      MOV      r6,r0
        0x00002522:    e008        ..      B        0x2536 ; CLK_SetCoreClock + 102
        0x00002524:    f44f2000    O..     MOV      r0,#0x80000
        0x00002528:    f7ffff3d    ..=.    BL       CLK_EnablePLL ; 0x23a6
        0x0000252c:    4606        .F      MOV      r6,r0
        0x0000252e:    f8d40250    ..P.    LDR      r0,[r4,#0x250]
        0x00002532:    f0000510    ....    AND      r5,r0,#0x10
        0x00002536:    2100        .!      MOVS     r1,#0
        0x00002538:    2002        .       MOVS     r0,#2
        0x0000253a:    f7fffed9    ....    BL       CLK_SetHCLK ; 0x22f0
        0x0000253e:    b92d        -.      CBNZ     r5,0x254c ; CLK_SetCoreClock + 124
        0x00002540:    f8d40200    ....    LDR      r0,[r4,#0x200]
        0x00002544:    f0200004     ...    BIC      r0,r0,#4
        0x00002548:    f8c40200    ....    STR      r0,[r4,#0x200]
        0x0000254c:    4630        0F      MOV      r0,r6
        0x0000254e:    bd70        p.      POP      {r4-r6,pc}
    $d
        0x00002550:    4000022c    ,..@    DCD    1073742380
        0x00002554:    40000228    (..@    DCD    1073742376
        0x00002558:    20000000    ...     DCD    536870912
        0x0000255c:    20000660    `..     DCD    536872544
        0x00002560:    04020201    ....    DCD    67240449
        0x00002564:    00b71b00    ....    DCD    12000000
        0x00002568:    002dc6c0    ..-.    DCD    3000000
        0x0000256c:    fd050f80    ....    DCD    4244967296
        0x00002570:    1ad27480    .t..    DCD    450000000
        0x00002574:    ffc2f700    ....    DCD    4290967296
        0x00002578:    047868c0    .hx.    DCD    75000000
        0x0000257c:    ffffc000    ....    DCD    4294950912
        0x00002580:    fffffe00    ....    DCD    4294966784
        0x00002584:    0008421e    .B..    DCD    541214
        0x00002588:    0b71b000    ..q.    DCD    192000000
    $t
    .text
    UART_Open
        0x0000258c:    e92d41ff    -..A    PUSH     {r0-r8,lr}
        0x00002590:    4604        .F      MOV      r4,r0
        0x00002592:    485e        ^H      LDR      r0,[pc,#376] ; [0x270c] = 0x2cb0
        0x00002594:    460f        .F      MOV      r7,r1
        0x00002596:    2500        .%      MOVS     r5,#0
        0x00002598:    c80f        ..      LDM      r0,{r0-r3}
        0x0000259a:    e88d000f    ....    STM      sp,{r0-r3}
        0x0000259e:    495c        \I      LDR      r1,[pc,#368] ; [0x2710] = 0x40070000
        0x000025a0:    462e        .F      MOV      r6,r5
        0x000025a2:    f04f4080    O..@    MOV      r0,#0x40000000
        0x000025a6:    428c        .B      CMP      r4,r1
        0x000025a8:    d106        ..      BNE      0x25b8 ; UART_Open + 44
        0x000025aa:    f8d01214    ....    LDR      r1,[r0,#0x214]
        0x000025ae:    f8d00220    .. .    LDR      r0,[r0,#0x220]
        0x000025b2:    f3c16501    ...e    UBFX     r5,r1,#24,#2
        0x000025b6:    e02a        *.      B        0x260e ; UART_Open + 130
        0x000025b8:    4956        VI      LDR      r1,[pc,#344] ; [0x2714] = 0x40071000
        0x000025ba:    428c        .B      CMP      r4,r1
        0x000025bc:    d106        ..      BNE      0x25cc ; UART_Open + 64
        0x000025be:    f8d01214    ....    LDR      r1,[r0,#0x214]
        0x000025c2:    f8d00220    .. .    LDR      r0,[r0,#0x220]
        0x000025c6:    f3c16581    ...e    UBFX     r5,r1,#26,#2
        0x000025ca:    e02b        +.      B        0x2624 ; UART_Open + 152
        0x000025cc:    4952        RI      LDR      r1,[pc,#328] ; [0x2718] = 0x40072000
        0x000025ce:    428c        .B      CMP      r4,r1
        0x000025d0:    d108        ..      BNE      0x25e4 ; UART_Open + 88
        0x000025d2:    f8d0121c    ....    LDR      r1,[r0,#0x21c]
        0x000025d6:    f8d00230    ..0.    LDR      r0,[r0,#0x230]
        0x000025da:    f3c16501    ...e    UBFX     r5,r1,#24,#2
        0x000025de:    f000060f    ....    AND      r6,r0,#0xf
        0x000025e2:    e044        D.      B        0x266e ; UART_Open + 226
        0x000025e4:    494d        MI      LDR      r1,[pc,#308] ; [0x271c] = 0x40073000
        0x000025e6:    428c        .B      CMP      r4,r1
        0x000025e8:    d108        ..      BNE      0x25fc ; UART_Open + 112
        0x000025ea:    f8d0121c    ....    LDR      r1,[r0,#0x21c]
        0x000025ee:    f8d00230    ..0.    LDR      r0,[r0,#0x230]
        0x000025f2:    f3c16581    ...e    UBFX     r5,r1,#26,#2
        0x000025f6:    f3c01603    ....    UBFX     r6,r0,#4,#4
        0x000025fa:    e038        8.      B        0x266e ; UART_Open + 226
        0x000025fc:    4948        HI      LDR      r1,[pc,#288] ; [0x2720] = 0x40074000
        0x000025fe:    428c        .B      CMP      r4,r1
        0x00002600:    d108        ..      BNE      0x2614 ; UART_Open + 136
        0x00002602:    f8d0121c    ....    LDR      r1,[r0,#0x21c]
        0x00002606:    f8d00230    ..0.    LDR      r0,[r0,#0x230]
        0x0000260a:    f3c17501    ...u    UBFX     r5,r1,#28,#2
        0x0000260e:    f3c02603    ...&    UBFX     r6,r0,#8,#4
        0x00002612:    e02c        ,.      B        0x266e ; UART_Open + 226
        0x00002614:    4943        CI      LDR      r1,[pc,#268] ; [0x2724] = 0x40075000
        0x00002616:    428c        .B      CMP      r4,r1
        0x00002618:    d107        ..      BNE      0x262a ; UART_Open + 158
        0x0000261a:    f8d0121c    ....    LDR      r1,[r0,#0x21c]
        0x0000261e:    f8d00230    ..0.    LDR      r0,[r0,#0x230]
        0x00002622:    0f8d        ..      LSRS     r5,r1,#30
        0x00002624:    f3c03603    ...6    UBFX     r6,r0,#12,#4
        0x00002628:    e021        !.      B        0x266e ; UART_Open + 226
        0x0000262a:    493f        ?I      LDR      r1,[pc,#252] ; [0x2728] = 0x40076000
        0x0000262c:    428c        .B      CMP      r4,r1
        0x0000262e:    d104        ..      BNE      0x263a ; UART_Open + 174
        0x00002630:    f8d011f4    ....    LDR      r1,[r0,#0x1f4]
        0x00002634:    b2c9        ..      UXTB     r1,r1
        0x00002636:    2901        .)      CMP      r1,#1
        0x00002638:    d008        ..      BEQ      0x264c ; UART_Open + 192
        0x0000263a:    493c        <I      LDR      r1,[pc,#240] ; [0x272c] = 0x40077000
        0x0000263c:    428c        .B      CMP      r4,r1
        0x0000263e:    d116        ..      BNE      0x266e ; UART_Open + 226
        0x00002640:    f8d011f4    ....    LDR      r1,[r0,#0x1f4]
        0x00002644:    b2c9        ..      UXTB     r1,r1
        0x00002646:    2901        .)      CMP      r1,#1
        0x00002648:    d009        ..      BEQ      0x265e ; UART_Open + 210
        0x0000264a:    e010        ..      B        0x266e ; UART_Open + 226
        0x0000264c:    f8d0121c    ....    LDR      r1,[r0,#0x21c]
        0x00002650:    f8d00230    ..0.    LDR      r0,[r0,#0x230]
        0x00002654:    f3c15501    ...U    UBFX     r5,r1,#20,#2
        0x00002658:    f3c04603    ...F    UBFX     r6,r0,#16,#4
        0x0000265c:    e007        ..      B        0x266e ; UART_Open + 226
        0x0000265e:    f8d0121c    ....    LDR      r1,[r0,#0x21c]
        0x00002662:    f8d00230    ..0.    LDR      r0,[r0,#0x230]
        0x00002666:    f3c15581    ...U    UBFX     r5,r1,#22,#2
        0x0000266a:    f3c05603    ...V    UBFX     r6,r0,#20,#4
        0x0000266e:    2000        .       MOVS     r0,#0
        0x00002670:    6320         c      STR      r0,[r4,#0x30]
        0x00002672:    2003        .       MOVS     r0,#3
        0x00002674:    60e0        .`      STR      r0,[r4,#0xc]
        0x00002676:    68a0        .h      LDR      r0,[r4,#8]
        0x00002678:    492d        -I      LDR      r1,[pc,#180] ; [0x2730] = 0xfff0ff0f
        0x0000267a:    4008        .@      ANDS     r0,r0,r1
        0x0000267c:    60a0        .`      STR      r0,[r4,#8]
        0x0000267e:    46e8        .F      MOV      r8,sp
        0x00002680:    2d01        .-      CMP      r5,#1
        0x00002682:    d102        ..      BNE      0x268a ; UART_Open + 254
        0x00002684:    f7fffe65    ..e.    BL       CLK_GetPLLClockFreq ; 0x2352
        0x00002688:    9001        ..      STR      r0,[sp,#4]
        0x0000268a:    2f00        ./      CMP      r7,#0
        0x0000268c:    d01a        ..      BEQ      0x26c4 ; UART_Open + 312
        0x0000268e:    f8581025    X.%.    LDR      r1,[r8,r5,LSL #2]
        0x00002692:    1c76        v.      ADDS     r6,r6,#1
        0x00002694:    fbb1f0f6    ....    UDIV     r0,r1,r6
        0x00002698:    eb000057    ..W.    ADD      r0,r0,r7,LSR #1
        0x0000269c:    fbb0f0f7    ....    UDIV     r0,r0,r7
        0x000026a0:    1e80        ..      SUBS     r0,r0,#2
        0x000026a2:    f5b03f80    ...?    CMP      r0,#0x10000
        0x000026a6:    d30a        ..      BCC      0x26be ; UART_Open + 306
        0x000026a8:    fbb1f0f6    ....    UDIV     r0,r1,r6
        0x000026ac:    eb0000c7    ....    ADD      r0,r0,r7,LSL #3
        0x000026b0:    fbb0f0f7    ....    UDIV     r0,r0,r7
        0x000026b4:    f06f0101    o...    MVN      r1,#1
        0x000026b8:    eb011010    ....    ADD      r0,r1,r0,LSR #4
        0x000026bc:    e001        ..      B        0x26c2 ; UART_Open + 310
        0x000026be:    f0405040    @.@P    ORR      r0,r0,#0x30000000
        0x000026c2:    6260        `b      STR      r0,[r4,#0x24]
        0x000026c4:    e8bd81ff    ....    POP      {r0-r8,pc}
    UART_SetTimeoutCnt
        0x000026c8:    6a02        .j      LDR      r2,[r0,#0x20]
        0x000026ca:    f02202ff    "...    BIC      r2,r2,#0xff
        0x000026ce:    430a        .C      ORRS     r2,r2,r1
        0x000026d0:    6202        .b      STR      r2,[r0,#0x20]
        0x000026d2:    6841        Ah      LDR      r1,[r0,#4]
        0x000026d4:    f4416100    A..a    ORR      r1,r1,#0x800
        0x000026d8:    6041        A`      STR      r1,[r0,#4]
        0x000026da:    4770        pG      BX       lr
    UART_Write
        0x000026dc:    b5f0        ..      PUSH     {r4-r7,lr}
        0x000026de:    4604        .F      MOV      r4,r0
        0x000026e0:    2600        .&      MOVS     r6,#0
        0x000026e2:    4630        0F      MOV      r0,r6
        0x000026e4:    f04f4580    O..E    MOV      r5,#0x40000000
        0x000026e8:    e00c        ..      B        0x2704 ; UART_Write + 40
        0x000026ea:    2300        .#      MOVS     r3,#0
        0x000026ec:    e002        ..      B        0x26f4 ; UART_Write + 24
        0x000026ee:    1c5b        [.      ADDS     r3,r3,#1
        0x000026f0:    42ab        .B      CMP      r3,r5
        0x000026f2:    d209        ..      BCS      0x2708 ; UART_Write + 44
        0x000026f4:    69a7        .i      LDR      r7,[r4,#0x18]
        0x000026f6:    023f        ?.      LSLS     r7,r7,#8
        0x000026f8:    d4f9        ..      BMI      0x26ee ; UART_Write + 18
        0x000026fa:    2e00        ..      CMP      r6,#0
        0x000026fc:    d104        ..      BNE      0x2708 ; UART_Write + 44
        0x000026fe:    5c0b        .\      LDRB     r3,[r1,r0]
        0x00002700:    6023        #`      STR      r3,[r4,#0]
        0x00002702:    1c40        @.      ADDS     r0,r0,#1
        0x00002704:    4290        .B      CMP      r0,r2
        0x00002706:    d1f0        ..      BNE      0x26ea ; UART_Write + 14
        0x00002708:    bdf0        ..      POP      {r4-r7,pc}
    $d
        0x0000270a:    0000        ..      DCW    0
        0x0000270c:    00002cb0    .,..    DCD    11440
        0x00002710:    40070000    ...@    DCD    1074200576
        0x00002714:    40071000    ...@    DCD    1074204672
        0x00002718:    40072000    . .@    DCD    1074208768
        0x0000271c:    40073000    .0.@    DCD    1074212864
        0x00002720:    40074000    .@.@    DCD    1074216960
        0x00002724:    40075000    .P.@    DCD    1074221056
        0x00002728:    40076000    .`.@    DCD    1074225152
        0x0000272c:    40077000    .p.@    DCD    1074229248
        0x00002730:    fff0ff0f    ....    DCD    4293984015
    $t
    .text
    TIMER_GetModuleClock
        0x00002734:    b510        ..      PUSH     {r4,lr}
        0x00002736:    b088        ..      SUB      sp,sp,#0x20
        0x00002738:    4604        .F      MOV      r4,r0
        0x0000273a:    2220         "      MOVS     r2,#0x20
        0x0000273c:    494f        OI      LDR      r1,[pc,#316] ; [0x287c] = 0x2ce0
        0x0000273e:    4668        hF      MOV      r0,sp
        0x00002740:    f000f8c0    ....    BL       __aeabi_memcpy ; 0x28c4
        0x00002744:    4a4e        NJ      LDR      r2,[pc,#312] ; [0x2880] = 0x40050000
        0x00002746:    4b4f        OK      LDR      r3,[pc,#316] ; [0x2884] = 0x40050100
        0x00002748:    0390        ..      LSLS     r0,r2,#14
        0x0000274a:    4294        .B      CMP      r4,r2
        0x0000274c:    d104        ..      BNE      0x2758 ; TIMER_GetModuleClock + 36
        0x0000274e:    f8d00214    ....    LDR      r0,[r0,#0x214]
        0x00002752:    f3c02102    ...!    UBFX     r1,r0,#8,#3
        0x00002756:    e010        ..      B        0x277a ; TIMER_GetModuleClock + 70
        0x00002758:    429c        .B      CMP      r4,r3
        0x0000275a:    d104        ..      BNE      0x2766 ; TIMER_GetModuleClock + 50
        0x0000275c:    f8d00214    ....    LDR      r0,[r0,#0x214]
        0x00002760:    f3c03102    ...1    UBFX     r1,r0,#12,#3
        0x00002764:    e009        ..      B        0x277a ; TIMER_GetModuleClock + 70
        0x00002766:    4948        HI      LDR      r1,[pc,#288] ; [0x2888] = 0x40051000
        0x00002768:    f8d00214    ....    LDR      r0,[r0,#0x214]
        0x0000276c:    428c        .B      CMP      r4,r1
        0x0000276e:    d102        ..      BNE      0x2776 ; TIMER_GetModuleClock + 66
        0x00002770:    f3c04102    ...A    UBFX     r1,r0,#16,#3
        0x00002774:    e001        ..      B        0x277a ; TIMER_GetModuleClock + 70
        0x00002776:    f3c05102    ...Q    UBFX     r1,r0,#20,#3
        0x0000277a:    2902        .)      CMP      r1,#2
        0x0000277c:    d003        ..      BEQ      0x2786 ; TIMER_GetModuleClock + 82
        0x0000277e:    f85d0021    ].!.    LDR      r0,[sp,r1,LSL #2]
        0x00002782:    b008        ..      ADD      sp,sp,#0x20
        0x00002784:    bd10        ..      POP      {r4,pc}
        0x00002786:    4294        .B      CMP      r4,r2
        0x00002788:    d001        ..      BEQ      0x278e ; TIMER_GetModuleClock + 90
        0x0000278a:    429c        .B      CMP      r4,r3
        0x0000278c:    d102        ..      BNE      0x2794 ; TIMER_GetModuleClock + 96
        0x0000278e:    f7fffd34    ..4.    BL       CLK_GetPCLK0Freq ; 0x21fa
        0x00002792:    e7f6        ..      B        0x2782 ; TIMER_GetModuleClock + 78
        0x00002794:    f7fffd61    ..a.    BL       CLK_GetPCLK1Freq ; 0x225a
        0x00002798:    e7f3        ..      B        0x2782 ; TIMER_GetModuleClock + 78
    TIMER_Open
        0x0000279a:    b570        p.      PUSH     {r4-r6,lr}
        0x0000279c:    4616        .F      MOV      r6,r2
        0x0000279e:    460d        .F      MOV      r5,r1
        0x000027a0:    4604        .F      MOV      r4,r0
        0x000027a2:    f7ffffc7    ....    BL       TIMER_GetModuleClock ; 0x2734
        0x000027a6:    2300        .#      MOVS     r3,#0
        0x000027a8:    ebb60f50    ..P.    CMP      r6,r0,LSR #1
        0x000027ac:    d901        ..      BLS      0x27b2 ; TIMER_Open + 24
        0x000027ae:    2202        ."      MOVS     r2,#2
        0x000027b0:    e006        ..      B        0x27c0 ; TIMER_Open + 38
        0x000027b2:    fbb0f2f6    ....    UDIV     r2,r0,r6
        0x000027b6:    0e13        ..      LSRS     r3,r2,#24
        0x000027b8:    d002        ..      BEQ      0x27c0 ; TIMER_Open + 38
        0x000027ba:    1c59        Y.      ADDS     r1,r3,#1
        0x000027bc:    fbb2f2f1    ....    UDIV     r2,r2,r1
        0x000027c0:    431d        .C      ORRS     r5,r5,r3
        0x000027c2:    6025        %`      STR      r5,[r4,#0]
        0x000027c4:    6062        b`      STR      r2,[r4,#4]
        0x000027c6:    1c5b        [.      ADDS     r3,r3,#1
        0x000027c8:    435a        ZC      MULS     r2,r3,r2
        0x000027ca:    fbb0f0f2    ....    UDIV     r0,r0,r2
        0x000027ce:    bd70        p.      POP      {r4-r6,pc}
    TIMER_Delay
        0x000027d0:    e92d41f0    -..A    PUSH     {r4-r8,lr}
        0x000027d4:    460d        .F      MOV      r5,r1
        0x000027d6:    4604        .F      MOV      r4,r0
        0x000027d8:    f7ffffac    ....    BL       TIMER_GetModuleClock ; 0x2734
        0x000027dc:    2700        .'      MOVS     r7,#0
        0x000027de:    463e        >F      MOV      r6,r7
        0x000027e0:    6027        '`      STR      r7,[r4,#0]
        0x000027e2:    6167        ga      STR      r7,[r4,#0x14]
        0x000027e4:    4929        )I      LDR      r1,[pc,#164] ; [0x288c] = 0xf4240
        0x000027e6:    4288        .B      CMP      r0,r1
        0x000027e8:    d805        ..      BHI      0x27f6 ; TIMER_Delay + 38
        0x000027ea:    f44f727a    O.zr    MOV      r2,#0x3e8
        0x000027ee:    4295        .B      CMP      r5,r2
        0x000027f0:    d205        ..      BCS      0x27fe ; TIMER_Delay + 46
        0x000027f2:    4615        .F      MOV      r5,r2
        0x000027f4:    e006        ..      B        0x2804 ; TIMER_Delay + 52
        0x000027f6:    2d64        d-      CMP      r5,#0x64
        0x000027f8:    d201        ..      BCS      0x27fe ; TIMER_Delay + 46
        0x000027fa:    2564        d%      MOVS     r5,#0x64
        0x000027fc:    e002        ..      B        0x2804 ; TIMER_Delay + 52
        0x000027fe:    428d        .B      CMP      r5,r1
        0x00002800:    d900        ..      BLS      0x2804 ; TIMER_Delay + 52
        0x00002802:    460d        .F      MOV      r5,r1
        0x00002804:    4288        .B      CMP      r0,r1
        0x00002806:    d808        ..      BHI      0x281a ; TIMER_Delay + 74
        0x00002808:    4921        !I      LDR      r1,[pc,#132] ; [0x2890] = 0x3b9aca00
        0x0000280a:    f44f727a    O.zr    MOV      r2,#0x3e8
        0x0000280e:    fbb1f1f0    ....    UDIV     r1,r1,r0
        0x00002812:    4355        UC      MULS     r5,r2,r5
        0x00002814:    fbb5f1f1    ....    UDIV     r1,r5,r1
        0x00002818:    e007        ..      B        0x282a ; TIMER_Delay + 90
        0x0000281a:    fbb0f1f1    ....    UDIV     r1,r0,r1
        0x0000281e:    4369        iC      MULS     r1,r5,r1
        0x00002820:    0e0f        ..      LSRS     r7,r1,#24
        0x00002822:    d002        ..      BEQ      0x282a ; TIMER_Delay + 90
        0x00002824:    1c7a        z.      ADDS     r2,r7,#1
        0x00002826:    fbb1f1f2    ....    UDIV     r1,r1,r2
        0x0000282a:    6061        a`      STR      r1,[r4,#4]
        0x0000282c:    f0474180    G..A    ORR      r1,r7,#0x40000000
        0x00002830:    6021        !`      STR      r1,[r4,#0]
        0x00002832:    4d18        .M      LDR      r5,[pc,#96] ; [0x2894] = 0x20000000
        0x00002834:    6829        )h      LDR      r1,[r5,#0]
        0x00002836:    fbb1f0f0    ....    UDIV     r0,r1,r0
        0x0000283a:    1c40        @.      ADDS     r0,r0,#1
        0x0000283c:    d002        ..      BEQ      0x2844 ; TIMER_Delay + 116
        0x0000283e:    bf00        ..      NOP      
        0x00002840:    1e40        @.      SUBS     r0,r0,#1
        0x00002842:    d1fc        ..      BNE      0x283e ; TIMER_Delay + 110
        0x00002844:    4620         F      MOV      r0,r4
        0x00002846:    f7ffff75    ..u.    BL       TIMER_GetModuleClock ; 0x2734
        0x0000284a:    6829        )h      LDR      r1,[r5,#0]
        0x0000284c:    1c7f        ..      ADDS     r7,r7,#1
        0x0000284e:    fbb1f1f0    ....    UDIV     r1,r1,r0
        0x00002852:    4379        yC      MULS     r1,r7,r1
        0x00002854:    e00b        ..      B        0x286e ; TIMER_Delay + 158
        0x00002856:    68e2        .h      LDR      r2,[r4,#0xc]
        0x00002858:    4282        .B      CMP      r2,r0
        0x0000285a:    d107        ..      BNE      0x286c ; TIMER_Delay + 156
        0x0000285c:    4632        2F      MOV      r2,r6
        0x0000285e:    1c76        v.      ADDS     r6,r6,#1
        0x00002860:    428a        .B      CMP      r2,r1
        0x00002862:    d905        ..      BLS      0x2870 ; TIMER_Delay + 160
        0x00002864:    f04f30ff    O..0    MOV      r0,#0xffffffff
        0x00002868:    e8bd81f0    ....    POP      {r4-r8,pc}
        0x0000286c:    2600        .&      MOVS     r6,#0
        0x0000286e:    68e0        .h      LDR      r0,[r4,#0xc]
        0x00002870:    6822        "h      LDR      r2,[r4,#0]
        0x00002872:    0192        ..      LSLS     r2,r2,#6
        0x00002874:    d4ef        ..      BMI      0x2856 ; TIMER_Delay + 134
        0x00002876:    2000        .       MOVS     r0,#0
        0x00002878:    e7f6        ..      B        0x2868 ; TIMER_Delay + 152
    $d
        0x0000287a:    0000        ..      DCW    0
        0x0000287c:    00002ce0    .,..    DCD    11488
        0x00002880:    40050000    ...@    DCD    1074069504
        0x00002884:    40050100    ...@    DCD    1074069760
        0x00002888:    40051000    ...@    DCD    1074073600
        0x0000288c:    000f4240    @B..    DCD    1000000
        0x00002890:    3b9aca00    ...;    DCD    1000000000
        0x00002894:    20000000    ...     DCD    536870912
    $t
    .text
    GPIO_SetMode
        0x00002898:    b5f0        ..      PUSH     {r4-r7,lr}
        0x0000289a:    2300        .#      MOVS     r3,#0
        0x0000289c:    2701        .'      MOVS     r7,#1
        0x0000289e:    2503        .%      MOVS     r5,#3
        0x000028a0:    fa07f403    ....    LSL      r4,r7,r3
        0x000028a4:    438c        .C      BICS     r4,r4,r1
        0x000028a6:    d109        ..      BNE      0x28bc ; GPIO_SetMode + 36
        0x000028a8:    6806        .h      LDR      r6,[r0,#0]
        0x000028aa:    005c        \.      LSLS     r4,r3,#1
        0x000028ac:    fa05fc04    ....    LSL      r12,r5,r4
        0x000028b0:    ea26060c    &...    BIC      r6,r6,r12
        0x000028b4:    fa02f404    ....    LSL      r4,r2,r4
        0x000028b8:    4326        &C      ORRS     r6,r6,r4
        0x000028ba:    6006        .`      STR      r6,[r0,#0]
        0x000028bc:    1c5b        [.      ADDS     r3,r3,#1
        0x000028be:    2b10        .+      CMP      r3,#0x10
        0x000028c0:    d3ee        ..      BCC      0x28a0 ; GPIO_SetMode + 8
        0x000028c2:    bdf0        ..      POP      {r4-r7,pc}
    .text
    __aeabi_memcpy
    __aeabi_memcpy4
    __aeabi_memcpy8
        0x000028c4:    ea400301    @...    ORR      r3,r0,r1
        0x000028c8:    079b        ..      LSLS     r3,r3,#30
        0x000028ca:    d003        ..      BEQ      0x28d4 ; __aeabi_memcpy + 16
        0x000028cc:    e009        ..      B        0x28e2 ; __aeabi_memcpy + 30
        0x000028ce:    c908        ..      LDM      r1!,{r3}
        0x000028d0:    1f12        ..      SUBS     r2,r2,#4
        0x000028d2:    c008        ..      STM      r0!,{r3}
        0x000028d4:    2a04        .*      CMP      r2,#4
        0x000028d6:    d2fa        ..      BCS      0x28ce ; __aeabi_memcpy + 10
        0x000028d8:    e003        ..      B        0x28e2 ; __aeabi_memcpy + 30
        0x000028da:    f8113b01    ...;    LDRB     r3,[r1],#1
        0x000028de:    f8003b01    ...;    STRB     r3,[r0],#1
        0x000028e2:    1e52        R.      SUBS     r2,r2,#1
        0x000028e4:    d2f9        ..      BCS      0x28da ; __aeabi_memcpy + 22
        0x000028e6:    4770        pG      BX       lr
    .text
    __aeabi_uldivmod
        0x000028e8:    e92d5ff0    -.._    PUSH     {r4-r12,lr}
        0x000028ec:    4605        .F      MOV      r5,r0
        0x000028ee:    2000        .       MOVS     r0,#0
        0x000028f0:    4692        .F      MOV      r10,r2
        0x000028f2:    469b        .F      MOV      r11,r3
        0x000028f4:    4688        .F      MOV      r8,r1
        0x000028f6:    4606        .F      MOV      r6,r0
        0x000028f8:    4681        .F      MOV      r9,r0
        0x000028fa:    2440        @$      MOVS     r4,#0x40
        0x000028fc:    e01b        ..      B        0x2936 ; __aeabi_uldivmod + 78
        0x000028fe:    4628        (F      MOV      r0,r5
        0x00002900:    4641        AF      MOV      r1,r8
        0x00002902:    4647        GF      MOV      r7,r8
        0x00002904:    4622        "F      MOV      r2,r4
        0x00002906:    f000f842    ..B.    BL       __aeabi_llsr ; 0x298e
        0x0000290a:    4653        SF      MOV      r3,r10
        0x0000290c:    465a        ZF      MOV      r2,r11
        0x0000290e:    1ac0        ..      SUBS     r0,r0,r3
        0x00002910:    4191        .A      SBCS     r1,r1,r2
        0x00002912:    d310        ..      BCC      0x2936 ; __aeabi_uldivmod + 78
        0x00002914:    4611        .F      MOV      r1,r2
        0x00002916:    4618        .F      MOV      r0,r3
        0x00002918:    4622        "F      MOV      r2,r4
        0x0000291a:    f000f829    ..).    BL       __aeabi_llsl ; 0x2970
        0x0000291e:    1a2d        -.      SUBS     r5,r5,r0
        0x00002920:    eb670801    g...    SBC      r8,r7,r1
        0x00002924:    464f        OF      MOV      r7,r9
        0x00002926:    4622        "F      MOV      r2,r4
        0x00002928:    2001        .       MOVS     r0,#1
        0x0000292a:    2100        .!      MOVS     r1,#0
        0x0000292c:    f000f820    .. .    BL       __aeabi_llsl ; 0x2970
        0x00002930:    eb170900    ....    ADDS     r9,r7,r0
        0x00002934:    414e        NA      ADCS     r6,r6,r1
        0x00002936:    1e20         .      SUBS     r0,r4,#0
        0x00002938:    f1a40401    ....    SUB      r4,r4,#1
        0x0000293c:    dcdf        ..      BGT      0x28fe ; __aeabi_uldivmod + 22
        0x0000293e:    4648        HF      MOV      r0,r9
        0x00002940:    4631        1F      MOV      r1,r6
        0x00002942:    462a        *F      MOV      r2,r5
        0x00002944:    4643        CF      MOV      r3,r8
        0x00002946:    e8bd9ff0    ....    POP      {r4-r12,pc}
        0x0000294a:    0000        ..      MOVS     r0,r0
    .text
    __scatterload
    __scatterload_rt2
        0x0000294c:    4c06        .L      LDR      r4,[pc,#24] ; [0x2968] = 0x2d00
        0x0000294e:    4d07        .M      LDR      r5,[pc,#28] ; [0x296c] = 0x2d20
        0x00002950:    e006        ..      B        0x2960 ; __scatterload + 20
        0x00002952:    68e0        .h      LDR      r0,[r4,#0xc]
        0x00002954:    f0400301    @...    ORR      r3,r0,#1
        0x00002958:    e8940007    ....    LDM      r4,{r0-r2}
        0x0000295c:    4798        .G      BLX      r3
        0x0000295e:    3410        .4      ADDS     r4,r4,#0x10
        0x00002960:    42ac        .B      CMP      r4,r5
        0x00002962:    d3f6        ..      BCC      0x2952 ; __scatterload + 6
        0x00002964:    f7fdfc4a    ..J.    BL       __main_after_scatterload ; 0x1fc
    $d
        0x00002968:    00002d00    .-..    DCD    11520
        0x0000296c:    00002d20     -..    DCD    11552
    $t
    .text
    __aeabi_llsl
    _ll_shift_l
        0x00002970:    2a20         *      CMP      r2,#0x20
        0x00002972:    db04        ..      BLT      0x297e ; __aeabi_llsl + 14
        0x00002974:    3a20         :      SUBS     r2,r2,#0x20
        0x00002976:    fa00f102    ....    LSL      r1,r0,r2
        0x0000297a:    2000        .       MOVS     r0,#0
        0x0000297c:    4770        pG      BX       lr
        0x0000297e:    4091        .@      LSLS     r1,r1,r2
        0x00002980:    f1c20320    .. .    RSB      r3,r2,#0x20
        0x00002984:    fa20f303     ...    LSR      r3,r0,r3
        0x00002988:    4319        .C      ORRS     r1,r1,r3
        0x0000298a:    4090        .@      LSLS     r0,r0,r2
        0x0000298c:    4770        pG      BX       lr
    .text
    __aeabi_llsr
    _ll_ushift_r
        0x0000298e:    2a20         *      CMP      r2,#0x20
        0x00002990:    db04        ..      BLT      0x299c ; __aeabi_llsr + 14
        0x00002992:    3a20         :      SUBS     r2,r2,#0x20
        0x00002994:    fa21f002    !...    LSR      r0,r1,r2
        0x00002998:    2100        .!      MOVS     r1,#0
        0x0000299a:    4770        pG      BX       lr
        0x0000299c:    fa21f302    !...    LSR      r3,r1,r2
        0x000029a0:    40d0        .@      LSRS     r0,r0,r2
        0x000029a2:    f1c20220    .. .    RSB      r2,r2,#0x20
        0x000029a6:    4091        .@      LSLS     r1,r1,r2
        0x000029a8:    4308        .C      ORRS     r0,r0,r1
        0x000029aa:    4619        .F      MOV      r1,r3
        0x000029ac:    4770        pG      BX       lr
        0x000029ae:    0000        ..      MOVS     r0,r0
    i.__0printf$5
    __0printf$5
    __1printf$5
    __2printf
        0x000029b0:    b40f        ..      PUSH     {r0-r3}
        0x000029b2:    4b05        .K      LDR      r3,[pc,#20] ; [0x29c8] = 0x2069
        0x000029b4:    b510        ..      PUSH     {r4,lr}
        0x000029b6:    a903        ..      ADD      r1,sp,#0xc
        0x000029b8:    4a04        .J      LDR      r2,[pc,#16] ; [0x29cc] = 0x2000065c
        0x000029ba:    9802        ..      LDR      r0,[sp,#8]
        0x000029bc:    f000f818    ....    BL       _printf_core ; 0x29f0
        0x000029c0:    bc10        ..      POP      {r4}
        0x000029c2:    f85dfb14    ]...    LDR      pc,[sp],#0x14
    $d
        0x000029c6:    0000        ..      DCW    0
        0x000029c8:    00002069    i ..    DCD    8297
        0x000029cc:    2000065c    \..     DCD    536872540
    $t
    i.__scatterload_copy
    __scatterload_copy
        0x000029d0:    e002        ..      B        0x29d8 ; __scatterload_copy + 8
        0x000029d2:    c808        ..      LDM      r0!,{r3}
        0x000029d4:    1f12        ..      SUBS     r2,r2,#4
        0x000029d6:    c108        ..      STM      r1!,{r3}
        0x000029d8:    2a00        .*      CMP      r2,#0
        0x000029da:    d1fa        ..      BNE      0x29d2 ; __scatterload_copy + 2
        0x000029dc:    4770        pG      BX       lr
    i.__scatterload_null
    __scatterload_null
        0x000029de:    4770        pG      BX       lr
    i.__scatterload_zeroinit
    __scatterload_zeroinit
        0x000029e0:    2000        .       MOVS     r0,#0
        0x000029e2:    e001        ..      B        0x29e8 ; __scatterload_zeroinit + 8
        0x000029e4:    c101        ..      STM      r1!,{r0}
        0x000029e6:    1f12        ..      SUBS     r2,r2,#4
        0x000029e8:    2a00        .*      CMP      r2,#0
        0x000029ea:    d1fb        ..      BNE      0x29e4 ; __scatterload_zeroinit + 4
        0x000029ec:    4770        pG      BX       lr
        0x000029ee:    0000        ..      MOVS     r0,r0
    i._printf_core
    _printf_core
        0x000029f0:    e92d4fff    -..O    PUSH     {r0-r11,lr}
        0x000029f4:    b08d        ..      SUB      sp,sp,#0x34
        0x000029f6:    469b        .F      MOV      r11,r3
        0x000029f8:    460f        .F      MOV      r7,r1
        0x000029fa:    4604        .F      MOV      r4,r0
        0x000029fc:    2600        .&      MOVS     r6,#0
        0x000029fe:    e006        ..      B        0x2a0e ; _printf_core + 30
        0x00002a00:    2825        %(      CMP      r0,#0x25
        0x00002a02:    d00b        ..      BEQ      0x2a1c ; _printf_core + 44
        0x00002a04:    465a        ZF      MOV      r2,r11
        0x00002a06:    990f        ..      LDR      r1,[sp,#0x3c]
        0x00002a08:    4790        .G      BLX      r2
        0x00002a0a:    1c64        d.      ADDS     r4,r4,#1
        0x00002a0c:    1c76        v.      ADDS     r6,r6,#1
        0x00002a0e:    7820         x      LDRB     r0,[r4,#0]
        0x00002a10:    2800        .(      CMP      r0,#0
        0x00002a12:    d1f5        ..      BNE      0x2a00 ; _printf_core + 16
        0x00002a14:    b011        ..      ADD      sp,sp,#0x44
        0x00002a16:    4630        0F      MOV      r0,r6
        0x00002a18:    e8bd8ff0    ....    POP      {r4-r11,pc}
        0x00002a1c:    2500        .%      MOVS     r5,#0
        0x00002a1e:    46a8        .F      MOV      r8,r5
        0x00002a20:    2201        ."      MOVS     r2,#1
        0x00002a22:    4998        .I      LDR      r1,[pc,#608] ; [0x2c84] = 0x12809
        0x00002a24:    e000        ..      B        0x2a28 ; _printf_core + 56
        0x00002a26:    4305        .C      ORRS     r5,r5,r0
        0x00002a28:    f8143f01    ...?    LDRB     r3,[r4,#1]!
        0x00002a2c:    3b20         ;      SUBS     r3,r3,#0x20
        0x00002a2e:    fa02f003    ....    LSL      r0,r2,r3
        0x00002a32:    4208        .B      TST      r0,r1
        0x00002a34:    d1f7        ..      BNE      0x2a26 ; _printf_core + 54
        0x00002a36:    7820         x      LDRB     r0,[r4,#0]
        0x00002a38:    282e        .(      CMP      r0,#0x2e
        0x00002a3a:    d117        ..      BNE      0x2a6c ; _printf_core + 124
        0x00002a3c:    f8140f01    ....    LDRB     r0,[r4,#1]!
        0x00002a40:    f0450504    E...    ORR      r5,r5,#4
        0x00002a44:    282a        *(      CMP      r0,#0x2a
        0x00002a46:    d00e        ..      BEQ      0x2a66 ; _printf_core + 118
        0x00002a48:    f06f022f    o./.    MVN      r2,#0x2f
        0x00002a4c:    7820         x      LDRB     r0,[r4,#0]
        0x00002a4e:    f1a00130    ..0.    SUB      r1,r0,#0x30
        0x00002a52:    2909        .)      CMP      r1,#9
        0x00002a54:    d80a        ..      BHI      0x2a6c ; _printf_core + 124
        0x00002a56:    eb080188    ....    ADD      r1,r8,r8,LSL #2
        0x00002a5a:    eb020141    ..A.    ADD      r1,r2,r1,LSL #1
        0x00002a5e:    eb000801    ....    ADD      r8,r0,r1
        0x00002a62:    1c64        d.      ADDS     r4,r4,#1
        0x00002a64:    e7f2        ..      B        0x2a4c ; _printf_core + 92
        0x00002a66:    f8578b04    W...    LDR      r8,[r7],#4
        0x00002a6a:    1c64        d.      ADDS     r4,r4,#1
        0x00002a6c:    7820         x      LDRB     r0,[r4,#0]
        0x00002a6e:    286c        l(      CMP      r0,#0x6c
        0x00002a70:    d00d        ..      BEQ      0x2a8e ; _printf_core + 158
        0x00002a72:    dc04        ..      BGT      0x2a7e ; _printf_core + 142
        0x00002a74:    284c        L(      CMP      r0,#0x4c
        0x00002a76:    d012        ..      BEQ      0x2a9e ; _printf_core + 174
        0x00002a78:    286a        j(      CMP      r0,#0x6a
        0x00002a7a:    d111        ..      BNE      0x2aa0 ; _printf_core + 176
        0x00002a7c:    e004        ..      B        0x2a88 ; _printf_core + 152
        0x00002a7e:    2874        t(      CMP      r0,#0x74
        0x00002a80:    d00d        ..      BEQ      0x2a9e ; _printf_core + 174
        0x00002a82:    287a        z(      CMP      r0,#0x7a
        0x00002a84:    d10c        ..      BNE      0x2aa0 ; _printf_core + 176
        0x00002a86:    e00a        ..      B        0x2a9e ; _printf_core + 174
        0x00002a88:    f4451500    E...    ORR      r5,r5,#0x200000
        0x00002a8c:    e007        ..      B        0x2a9e ; _printf_core + 174
        0x00002a8e:    7861        ax      LDRB     r1,[r4,#1]
        0x00002a90:    f4451580    E...    ORR      r5,r5,#0x100000
        0x00002a94:    4281        .B      CMP      r1,r0
        0x00002a96:    d102        ..      BNE      0x2a9e ; _printf_core + 174
        0x00002a98:    1c64        d.      ADDS     r4,r4,#1
        0x00002a9a:    f5051580    ....    ADD      r5,r5,#0x100000
        0x00002a9e:    1c64        d.      ADDS     r4,r4,#1
        0x00002aa0:    7820         x      LDRB     r0,[r4,#0]
        0x00002aa2:    2869        i(      CMP      r0,#0x69
        0x00002aa4:    d044        D.      BEQ      0x2b30 ; _printf_core + 320
        0x00002aa6:    dc08        ..      BGT      0x2aba ; _printf_core + 202
        0x00002aa8:    2800        .(      CMP      r0,#0
        0x00002aaa:    d0b3        ..      BEQ      0x2a14 ; _printf_core + 36
        0x00002aac:    2858        X(      CMP      r0,#0x58
        0x00002aae:    d067        g.      BEQ      0x2b80 ; _printf_core + 400
        0x00002ab0:    2863        c(      CMP      r0,#0x63
        0x00002ab2:    d00f        ..      BEQ      0x2ad4 ; _printf_core + 228
        0x00002ab4:    2864        d(      CMP      r0,#0x64
        0x00002ab6:    d108        ..      BNE      0x2aca ; _printf_core + 218
        0x00002ab8:    e03a        :.      B        0x2b30 ; _printf_core + 320
        0x00002aba:    2870        p(      CMP      r0,#0x70
        0x00002abc:    d065        e.      BEQ      0x2b8a ; _printf_core + 410
        0x00002abe:    2873        s(      CMP      r0,#0x73
        0x00002ac0:    d012        ..      BEQ      0x2ae8 ; _printf_core + 248
        0x00002ac2:    2875        u(      CMP      r0,#0x75
        0x00002ac4:    d05a        Z.      BEQ      0x2b7c ; _printf_core + 396
        0x00002ac6:    2878        x(      CMP      r0,#0x78
        0x00002ac8:    d05a        Z.      BEQ      0x2b80 ; _printf_core + 400
        0x00002aca:    465a        ZF      MOV      r2,r11
        0x00002acc:    990f        ..      LDR      r1,[sp,#0x3c]
        0x00002ace:    4790        .G      BLX      r2
        0x00002ad0:    1c76        v.      ADDS     r6,r6,#1
        0x00002ad2:    e0d5        ..      B        0x2c80 ; _printf_core + 656
        0x00002ad4:    f8170b04    ....    LDRB     r0,[r7],#4
        0x00002ad8:    f88d0000    ....    STRB     r0,[sp,#0]
        0x00002adc:    2000        .       MOVS     r0,#0
        0x00002ade:    f88d0001    ....    STRB     r0,[sp,#1]
        0x00002ae2:    46e9        .F      MOV      r9,sp
        0x00002ae4:    2001        .       MOVS     r0,#1
        0x00002ae6:    e003        ..      B        0x2af0 ; _printf_core + 256
        0x00002ae8:    f8579b04    W...    LDR      r9,[r7],#4
        0x00002aec:    f04f30ff    O..0    MOV      r0,#0xffffffff
        0x00002af0:    0769        i.      LSLS     r1,r5,#29
        0x00002af2:    f04f0500    O...    MOV      r5,#0
        0x00002af6:    d401        ..      BMI      0x2afc ; _printf_core + 268
        0x00002af8:    e00a        ..      B        0x2b10 ; _printf_core + 288
        0x00002afa:    1c6d        m.      ADDS     r5,r5,#1
        0x00002afc:    4545        EE      CMP      r5,r8
        0x00002afe:    da0d        ..      BGE      0x2b1c ; _printf_core + 300
        0x00002b00:    4285        .B      CMP      r5,r0
        0x00002b02:    dbfa        ..      BLT      0x2afa ; _printf_core + 266
        0x00002b04:    f8191005    ....    LDRB     r1,[r9,r5]
        0x00002b08:    2900        .)      CMP      r1,#0
        0x00002b0a:    d1f6        ..      BNE      0x2afa ; _printf_core + 266
        0x00002b0c:    e006        ..      B        0x2b1c ; _printf_core + 300
        0x00002b0e:    1c6d        m.      ADDS     r5,r5,#1
        0x00002b10:    4285        .B      CMP      r5,r0
        0x00002b12:    dbfc        ..      BLT      0x2b0e ; _printf_core + 286
        0x00002b14:    f8191005    ....    LDRB     r1,[r9,r5]
        0x00002b18:    2900        .)      CMP      r1,#0
        0x00002b1a:    d1f8        ..      BNE      0x2b0e ; _printf_core + 286
        0x00002b1c:    442e        .D      ADD      r6,r6,r5
        0x00002b1e:    e004        ..      B        0x2b2a ; _printf_core + 314
        0x00002b20:    f8190b01    ....    LDRB     r0,[r9],#1
        0x00002b24:    465a        ZF      MOV      r2,r11
        0x00002b26:    990f        ..      LDR      r1,[sp,#0x3c]
        0x00002b28:    4790        .G      BLX      r2
        0x00002b2a:    1e6d        m.      SUBS     r5,r5,#1
        0x00002b2c:    d2f8        ..      BCS      0x2b20 ; _printf_core + 304
        0x00002b2e:    e0a7        ..      B        0x2c80 ; _printf_core + 656
        0x00002b30:    200a        .       MOVS     r0,#0xa
        0x00002b32:    2100        .!      MOVS     r1,#0
        0x00002b34:    e9cd0108    ....    STRD     r0,r1,[sp,#0x20]
        0x00002b38:    f3c55002    ...P    UBFX     r0,r5,#20,#3
        0x00002b3c:    2802        .(      CMP      r0,#2
        0x00002b3e:    d00c        ..      BEQ      0x2b5a ; _printf_core + 362
        0x00002b40:    cf01        ..      LDM      r7!,{r0}
        0x00002b42:    17c1        ..      ASRS     r1,r0,#31
        0x00002b44:    1e02        ..      SUBS     r2,r0,#0
        0x00002b46:    f1710200    q...    SBCS     r2,r1,#0
        0x00002b4a:    da0c        ..      BGE      0x2b66 ; _printf_core + 374
        0x00002b4c:    2300        .#      MOVS     r3,#0
        0x00002b4e:    ebd00003    ....    RSBS     r0,r0,r3
        0x00002b52:    eb630101    c...    SBC      r1,r3,r1
        0x00002b56:    222d        -"      MOVS     r2,#0x2d
        0x00002b58:    e008        ..      B        0x2b6c ; _printf_core + 380
        0x00002b5a:    1dff        ..      ADDS     r7,r7,#7
        0x00002b5c:    f0270707    '...    BIC      r7,r7,#7
        0x00002b60:    e8f70102    ....    LDRD     r0,r1,[r7],#8
        0x00002b64:    e7ee        ..      B        0x2b44 ; _printf_core + 340
        0x00002b66:    052a        *.      LSLS     r2,r5,#20
        0x00002b68:    d504        ..      BPL      0x2b74 ; _printf_core + 388
        0x00002b6a:    222b        +"      MOVS     r2,#0x2b
        0x00002b6c:    f88d2028    ..(     STRB     r2,[sp,#0x28]
        0x00002b70:    2201        ."      MOVS     r2,#1
        0x00002b72:    e03c        <.      B        0x2bee ; _printf_core + 510
        0x00002b74:    07ea        ..      LSLS     r2,r5,#31
        0x00002b76:    d03a        :.      BEQ      0x2bee ; _printf_core + 510
        0x00002b78:    2220         "      MOVS     r2,#0x20
        0x00002b7a:    e7f7        ..      B        0x2b6c ; _printf_core + 380
        0x00002b7c:    200a        .       MOVS     r0,#0xa
        0x00002b7e:    e000        ..      B        0x2b82 ; _printf_core + 402
        0x00002b80:    2010        .       MOVS     r0,#0x10
        0x00002b82:    2100        .!      MOVS     r1,#0
        0x00002b84:    e9cd0108    ....    STRD     r0,r1,[sp,#0x20]
        0x00002b88:    e007        ..      B        0x2b9a ; _printf_core + 426
        0x00002b8a:    2010        .       MOVS     r0,#0x10
        0x00002b8c:    2100        .!      MOVS     r1,#0
        0x00002b8e:    f0450504    E...    ORR      r5,r5,#4
        0x00002b92:    e9cd0108    ....    STRD     r0,r1,[sp,#0x20]
        0x00002b96:    f04f0808    O...    MOV      r8,#8
        0x00002b9a:    f3c55002    ...P    UBFX     r0,r5,#20,#3
        0x00002b9e:    2802        .(      CMP      r0,#2
        0x00002ba0:    d010        ..      BEQ      0x2bc4 ; _printf_core + 468
        0x00002ba2:    cf01        ..      LDM      r7!,{r0}
        0x00002ba4:    2100        .!      MOVS     r1,#0
        0x00002ba6:    f04f0a00    O...    MOV      r10,#0
        0x00002baa:    072a        *.      LSLS     r2,r5,#28
        0x00002bac:    d520         .      BPL      0x2bf0 ; _printf_core + 512
        0x00002bae:    7822        "x      LDRB     r2,[r4,#0]
        0x00002bb0:    2a70        p*      CMP      r2,#0x70
        0x00002bb2:    d00d        ..      BEQ      0x2bd0 ; _printf_core + 480
        0x00002bb4:    e9ddc308    ....    LDRD     r12,r3,[sp,#0x20]
        0x00002bb8:    f08c0c10    ....    EOR      r12,r12,#0x10
        0x00002bbc:    ea5c0c03    \...    ORRS     r12,r12,r3
        0x00002bc0:    d00c        ..      BEQ      0x2bdc ; _printf_core + 492
        0x00002bc2:    e015        ..      B        0x2bf0 ; _printf_core + 512
        0x00002bc4:    1dff        ..      ADDS     r7,r7,#7
        0x00002bc6:    f0270707    '...    BIC      r7,r7,#7
        0x00002bca:    e8f70102    ....    LDRD     r0,r1,[r7],#8
        0x00002bce:    e7ea        ..      B        0x2ba6 ; _printf_core + 438
        0x00002bd0:    2240        @"      MOVS     r2,#0x40
        0x00002bd2:    f88d2028    ..(     STRB     r2,[sp,#0x28]
        0x00002bd6:    f04f0a01    O...    MOV      r10,#1
        0x00002bda:    e00c        ..      B        0x2bf6 ; _printf_core + 518
        0x00002bdc:    ea500301    P...    ORRS     r3,r0,r1
        0x00002be0:    d006        ..      BEQ      0x2bf0 ; _printf_core + 512
        0x00002be2:    2330        0#      MOVS     r3,#0x30
        0x00002be4:    f88d3028    ..(0    STRB     r3,[sp,#0x28]
        0x00002be8:    f88d2029    ..)     STRB     r2,[sp,#0x29]
        0x00002bec:    2202        ."      MOVS     r2,#2
        0x00002bee:    4692        .F      MOV      r10,r2
        0x00002bf0:    7822        "x      LDRB     r2,[r4,#0]
        0x00002bf2:    2a58        X*      CMP      r2,#0x58
        0x00002bf4:    d004        ..      BEQ      0x2c00 ; _printf_core + 528
        0x00002bf6:    a224        $.      ADR      r2,{pc}+0x92 ; 0x2c88
        0x00002bf8:    f10d0920    .. .    ADD      r9,sp,#0x20
        0x00002bfc:    920b        ..      STR      r2,[sp,#0x2c]
        0x00002bfe:    e009        ..      B        0x2c14 ; _printf_core + 548
        0x00002c00:    a226        &.      ADR      r2,{pc}+0x9c ; 0x2c9c
        0x00002c02:    e7f9        ..      B        0x2bf8 ; _printf_core + 520
        0x00002c04:    e9dd2308    ...#    LDRD     r2,r3,[sp,#0x20]
        0x00002c08:    f7fffe6e    ..n.    BL       __aeabi_uldivmod ; 0x28e8
        0x00002c0c:    9b0b        ..      LDR      r3,[sp,#0x2c]
        0x00002c0e:    5c9b        .\      LDRB     r3,[r3,r2]
        0x00002c10:    f8093d01    ...=    STRB     r3,[r9,#-1]!
        0x00002c14:    ea500201    P...    ORRS     r2,r0,r1
        0x00002c18:    d1f4        ..      BNE      0x2c04 ; _printf_core + 532
        0x00002c1a:    ebad0009    ....    SUB      r0,sp,r9
        0x00002c1e:    3020         0      ADDS     r0,r0,#0x20
        0x00002c20:    9008        ..      STR      r0,[sp,#0x20]
        0x00002c22:    0768        h.      LSLS     r0,r5,#29
        0x00002c24:    d401        ..      BMI      0x2c2a ; _printf_core + 570
        0x00002c26:    f04f0801    O...    MOV      r8,#1
        0x00002c2a:    9908        ..      LDR      r1,[sp,#0x20]
        0x00002c2c:    4588        .E      CMP      r8,r1
        0x00002c2e:    dd03        ..      BLE      0x2c38 ; _printf_core + 584
        0x00002c30:    9808        ..      LDR      r0,[sp,#0x20]
        0x00002c32:    eba80000    ....    SUB      r0,r8,r0
        0x00002c36:    e000        ..      B        0x2c3a ; _printf_core + 586
        0x00002c38:    2000        .       MOVS     r0,#0
        0x00002c3a:    4680        .F      MOV      r8,r0
        0x00002c3c:    2500        .%      MOVS     r5,#0
        0x00002c3e:    e006        ..      B        0x2c4e ; _printf_core + 606
        0x00002c40:    a80a        ..      ADD      r0,sp,#0x28
        0x00002c42:    465a        ZF      MOV      r2,r11
        0x00002c44:    5d40        @]      LDRB     r0,[r0,r5]
        0x00002c46:    990f        ..      LDR      r1,[sp,#0x3c]
        0x00002c48:    4790        .G      BLX      r2
        0x00002c4a:    1c6d        m.      ADDS     r5,r5,#1
        0x00002c4c:    1c76        v.      ADDS     r6,r6,#1
        0x00002c4e:    4555        UE      CMP      r5,r10
        0x00002c50:    dbf6        ..      BLT      0x2c40 ; _printf_core + 592
        0x00002c52:    e004        ..      B        0x2c5e ; _printf_core + 622
        0x00002c54:    2030        0       MOVS     r0,#0x30
        0x00002c56:    465a        ZF      MOV      r2,r11
        0x00002c58:    990f        ..      LDR      r1,[sp,#0x3c]
        0x00002c5a:    4790        .G      BLX      r2
        0x00002c5c:    1c76        v.      ADDS     r6,r6,#1
        0x00002c5e:    f1b80100    ....    SUBS     r1,r8,#0
        0x00002c62:    f1a80801    ....    SUB      r8,r8,#1
        0x00002c66:    dcf5        ..      BGT      0x2c54 ; _printf_core + 612
        0x00002c68:    e005        ..      B        0x2c76 ; _printf_core + 646
        0x00002c6a:    f8190b01    ....    LDRB     r0,[r9],#1
        0x00002c6e:    465a        ZF      MOV      r2,r11
        0x00002c70:    990f        ..      LDR      r1,[sp,#0x3c]
        0x00002c72:    4790        .G      BLX      r2
        0x00002c74:    1c76        v.      ADDS     r6,r6,#1
        0x00002c76:    9908        ..      LDR      r1,[sp,#0x20]
        0x00002c78:    1e48        H.      SUBS     r0,r1,#1
        0x00002c7a:    9008        ..      STR      r0,[sp,#0x20]
        0x00002c7c:    2900        .)      CMP      r1,#0
        0x00002c7e:    dcf4        ..      BGT      0x2c6a ; _printf_core + 634
        0x00002c80:    1c64        d.      ADDS     r4,r4,#1
        0x00002c82:    e6c4        ..      B        0x2a0e ; _printf_core + 30
    $d
        0x00002c84:    00012809    .(..    DCD    75785
        0x00002c88:    33323130    0123    DCD    858927408
        0x00002c8c:    37363534    4567    DCD    926299444
        0x00002c90:    62613938    89ab    DCD    1650538808
        0x00002c94:    66656463    cdef    DCD    1717920867
        0x00002c98:    00000000    ....    DCD    0
        0x00002c9c:    33323130    0123    DCD    858927408
        0x00002ca0:    37363534    4567    DCD    926299444
        0x00002ca4:    42413938    89AB    DCD    1111570744
        0x00002ca8:    46454443    CDEF    DCD    1178944579
        0x00002cac:    00000000    ....    DCD    0
    $d.realdata
    .constdata
        0x00002cb0:    00b71b00    ....    DCD    12000000
        0x00002cb4:    00000000    ....    DCD    0
        0x00002cb8:    00008000    ....    DCD    32768
        0x00002cbc:    00b71b00    ....    DCD    12000000
        0x00002cc0:    00b71b00    ....    DCD    12000000
        0x00002cc4:    00000000    ....    DCD    0
        0x00002cc8:    00008000    ....    DCD    32768
        0x00002ccc:    00b71b00    ....    DCD    12000000
        0x00002cd0:    00b71b00    ....    DCD    12000000
        0x00002cd4:    00000000    ....    DCD    0
        0x00002cd8:    00008000    ....    DCD    32768
        0x00002cdc:    00b71b00    ....    DCD    12000000
    .constdata
        0x00002ce0:    00b71b00    ....    DCD    12000000
        0x00002ce4:    00008000    ....    DCD    32768
        0x00002ce8:    00000000    ....    DCD    0
        0x00002cec:    00000000    ....    DCD    0
        0x00002cf0:    00000000    ....    DCD    0
        0x00002cf4:    00002710    .'..    DCD    10000
        0x00002cf8:    00000000    ....    DCD    0
        0x00002cfc:    00b71b00    ....    DCD    12000000
    Region$$Table$$Base
        0x00002d00:    00002d20     -..    DCD    11552
        0x00002d04:    20000000    ...     DCD    536870912
        0x00002d08:    00000664    d...    DCD    1636
        0x00002d0c:    000029d0    .)..    DCD    10704
        0x00002d10:    00003384    .3..    DCD    13188
        0x00002d14:    20000664    d..     DCD    536872548
        0x00002d18:    0000510c    .Q..    DCD    20748
        0x00002d1c:    000029e0    .)..    DCD    10720
    Region$$Table$$Limit

** Section #2 'ER_RW' (SHT_PROGBITS) [SHF_ALLOC + SHF_WRITE]
    Size   : 1636 bytes (alignment 4)
    Address: 0x20000000


** Section #3 'ER_ZI' (SHT_NOBITS) [SHF_ALLOC + SHF_WRITE]
    Size   : 20748 bytes (alignment 8)
    Address: 0x20000664


** Section #4 '.debug_abbrev' (SHT_PROGBITS)
    Size   : 1476 bytes


** Section #5 '.debug_frame' (SHT_PROGBITS)
    Size   : 4384 bytes


** Section #6 '.debug_info' (SHT_PROGBITS)
    Size   : 38484 bytes


** Section #7 '.debug_line' (SHT_PROGBITS)
    Size   : 13204 bytes


** Section #8 '.debug_loc' (SHT_PROGBITS)
    Size   : 6696 bytes


** Section #9 '.debug_macinfo' (SHT_PROGBITS)
    Size   : 182616 bytes


** Section #10 '.debug_pubnames' (SHT_PROGBITS)
    Size   : 9560 bytes


** Section #11 '.symtab' (SHT_SYMTAB)
    Size   : 10800 bytes (alignment 4)
    String table #12 '.strtab'
    Last local symbol no. 163


** Section #12 '.strtab' (SHT_STRTAB)
    Size   : 12076 bytes


** Section #13 '.note' (SHT_NOTE)
    Size   : 28 bytes (alignment 4)


** Section #14 '.comment' (SHT_PROGBITS)
    Size   : 12520 bytes


** Section #15 '.shstrtab' (SHT_STRTAB)
    Size   : 156 bytes


